Archive member included to satisfy reference by file (symbol)

/home/odougs/bin/ti/ccsv7/tools/compiler/gcc-arm-none-eabi-6-2017-q1-update/bin/../lib/gcc/arm-none-eabi/6.3.1/../../../../arm-none-eabi/lib/thumb/v7e-m/fpv4-sp/hard/libc.a(lib_a-calloc.o)
                              ./source/fir.o (calloc)
/home/odougs/bin/ti/ccsv7/tools/compiler/gcc-arm-none-eabi-6-2017-q1-update/bin/../lib/gcc/arm-none-eabi/6.3.1/../../../../arm-none-eabi/lib/thumb/v7e-m/fpv4-sp/hard/libc.a(lib_a-callocr.o)
                              /home/odougs/bin/ti/ccsv7/tools/compiler/gcc-arm-none-eabi-6-2017-q1-update/bin/../lib/gcc/arm-none-eabi/6.3.1/../../../../arm-none-eabi/lib/thumb/v7e-m/fpv4-sp/hard/libc.a(lib_a-calloc.o) (_calloc_r)
/home/odougs/bin/ti/ccsv7/tools/compiler/gcc-arm-none-eabi-6-2017-q1-update/bin/../lib/gcc/arm-none-eabi/6.3.1/../../../../arm-none-eabi/lib/thumb/v7e-m/fpv4-sp/hard/libc.a(lib_a-exit.o)
                              /home/odougs/bin/ti/ccsv7/tools/compiler/gcc-arm-none-eabi-6-2017-q1-update/bin/../lib/gcc/arm-none-eabi/6.3.1/../../../../arm-none-eabi/lib/thumb/v7e-m/fpv4-sp/hard/crt0.o (exit)
/home/odougs/bin/ti/ccsv7/tools/compiler/gcc-arm-none-eabi-6-2017-q1-update/bin/../lib/gcc/arm-none-eabi/6.3.1/../../../../arm-none-eabi/lib/thumb/v7e-m/fpv4-sp/hard/libc.a(lib_a-impure.o)
                              /home/odougs/bin/ti/ccsv7/tools/compiler/gcc-arm-none-eabi-6-2017-q1-update/bin/../lib/gcc/arm-none-eabi/6.3.1/../../../../arm-none-eabi/lib/thumb/v7e-m/fpv4-sp/hard/libc.a(lib_a-exit.o) (_global_impure_ptr)
/home/odougs/bin/ti/ccsv7/tools/compiler/gcc-arm-none-eabi-6-2017-q1-update/bin/../lib/gcc/arm-none-eabi/6.3.1/../../../../arm-none-eabi/lib/thumb/v7e-m/fpv4-sp/hard/libc.a(lib_a-init.o)
                              /home/odougs/bin/ti/ccsv7/tools/compiler/gcc-arm-none-eabi-6-2017-q1-update/bin/../lib/gcc/arm-none-eabi/6.3.1/../../../../arm-none-eabi/lib/thumb/v7e-m/fpv4-sp/hard/crt0.o (__libc_init_array)
/home/odougs/bin/ti/ccsv7/tools/compiler/gcc-arm-none-eabi-6-2017-q1-update/bin/../lib/gcc/arm-none-eabi/6.3.1/../../../../arm-none-eabi/lib/thumb/v7e-m/fpv4-sp/hard/libc.a(lib_a-malloc.o)
                              ./source/fir.o (malloc)
/home/odougs/bin/ti/ccsv7/tools/compiler/gcc-arm-none-eabi-6-2017-q1-update/bin/../lib/gcc/arm-none-eabi/6.3.1/../../../../arm-none-eabi/lib/thumb/v7e-m/fpv4-sp/hard/libc.a(lib_a-mallocr.o)
                              /home/odougs/bin/ti/ccsv7/tools/compiler/gcc-arm-none-eabi-6-2017-q1-update/bin/../lib/gcc/arm-none-eabi/6.3.1/../../../../arm-none-eabi/lib/thumb/v7e-m/fpv4-sp/hard/libc.a(lib_a-callocr.o) (_malloc_r)
/home/odougs/bin/ti/ccsv7/tools/compiler/gcc-arm-none-eabi-6-2017-q1-update/bin/../lib/gcc/arm-none-eabi/6.3.1/../../../../arm-none-eabi/lib/thumb/v7e-m/fpv4-sp/hard/libc.a(lib_a-memcpy.o)
                              ./FreeRTOS/queue.o (memcpy)
/home/odougs/bin/ti/ccsv7/tools/compiler/gcc-arm-none-eabi-6-2017-q1-update/bin/../lib/gcc/arm-none-eabi/6.3.1/../../../../arm-none-eabi/lib/thumb/v7e-m/fpv4-sp/hard/libc.a(lib_a-memset.o)
                              /home/odougs/bin/ti/ccsv7/tools/compiler/gcc-arm-none-eabi-6-2017-q1-update/bin/../lib/gcc/arm-none-eabi/6.3.1/../../../../arm-none-eabi/lib/thumb/v7e-m/fpv4-sp/hard/crt0.o (memset)
/home/odougs/bin/ti/ccsv7/tools/compiler/gcc-arm-none-eabi-6-2017-q1-update/bin/../lib/gcc/arm-none-eabi/6.3.1/../../../../arm-none-eabi/lib/thumb/v7e-m/fpv4-sp/hard/libc.a(lib_a-mlock.o)
                              /home/odougs/bin/ti/ccsv7/tools/compiler/gcc-arm-none-eabi-6-2017-q1-update/bin/../lib/gcc/arm-none-eabi/6.3.1/../../../../arm-none-eabi/lib/thumb/v7e-m/fpv4-sp/hard/libc.a(lib_a-mallocr.o) (__malloc_lock)
/home/odougs/bin/ti/ccsv7/tools/compiler/gcc-arm-none-eabi-6-2017-q1-update/bin/../lib/gcc/arm-none-eabi/6.3.1/../../../../arm-none-eabi/lib/thumb/v7e-m/fpv4-sp/hard/libc.a(lib_a-sbrkr.o)
                              /home/odougs/bin/ti/ccsv7/tools/compiler/gcc-arm-none-eabi-6-2017-q1-update/bin/../lib/gcc/arm-none-eabi/6.3.1/../../../../arm-none-eabi/lib/thumb/v7e-m/fpv4-sp/hard/libc.a(lib_a-mallocr.o) (_sbrk_r)
/home/odougs/bin/ti/ccsv7/tools/compiler/gcc-arm-none-eabi-6-2017-q1-update/bin/../lib/gcc/arm-none-eabi/6.3.1/../../../../arm-none-eabi/lib/thumb/v7e-m/fpv4-sp/hard/libc.a(lib_a-__call_atexit.o)
                              /home/odougs/bin/ti/ccsv7/tools/compiler/gcc-arm-none-eabi-6-2017-q1-update/bin/../lib/gcc/arm-none-eabi/6.3.1/../../../../arm-none-eabi/lib/thumb/v7e-m/fpv4-sp/hard/libc.a(lib_a-exit.o) (__call_exitprocs)
/home/odougs/bin/ti/ccsv7/tools/compiler/gcc-arm-none-eabi-6-2017-q1-update/bin/../lib/gcc/arm-none-eabi/6.3.1/../../../../arm-none-eabi/lib/thumb/v7e-m/fpv4-sp/hard/libc.a(lib_a-atexit.o)
                              /home/odougs/bin/ti/ccsv7/tools/compiler/gcc-arm-none-eabi-6-2017-q1-update/bin/../lib/gcc/arm-none-eabi/6.3.1/../../../../arm-none-eabi/lib/thumb/v7e-m/fpv4-sp/hard/libc.a(lib_a-__call_atexit.o) (atexit)
/home/odougs/bin/ti/ccsv7/tools/compiler/gcc-arm-none-eabi-6-2017-q1-update/bin/../lib/gcc/arm-none-eabi/6.3.1/../../../../arm-none-eabi/lib/thumb/v7e-m/fpv4-sp/hard/libc.a(lib_a-fini.o)
                              /home/odougs/bin/ti/ccsv7/tools/compiler/gcc-arm-none-eabi-6-2017-q1-update/bin/../lib/gcc/arm-none-eabi/6.3.1/../../../../arm-none-eabi/lib/thumb/v7e-m/fpv4-sp/hard/libc.a(lib_a-__call_atexit.o) (__libc_fini_array)
/home/odougs/bin/ti/ccsv7/tools/compiler/gcc-arm-none-eabi-6-2017-q1-update/bin/../lib/gcc/arm-none-eabi/6.3.1/../../../../arm-none-eabi/lib/thumb/v7e-m/fpv4-sp/hard/libc.a(lib_a-freer.o)
                              /home/odougs/bin/ti/ccsv7/tools/compiler/gcc-arm-none-eabi-6-2017-q1-update/bin/../lib/gcc/arm-none-eabi/6.3.1/../../../../arm-none-eabi/lib/thumb/v7e-m/fpv4-sp/hard/libc.a(lib_a-malloc.o) (_free_r)
/home/odougs/bin/ti/ccsv7/tools/compiler/gcc-arm-none-eabi-6-2017-q1-update/bin/../lib/gcc/arm-none-eabi/6.3.1/../../../../arm-none-eabi/lib/thumb/v7e-m/fpv4-sp/hard/libc.a(lib_a-lock.o)
                              /home/odougs/bin/ti/ccsv7/tools/compiler/gcc-arm-none-eabi-6-2017-q1-update/bin/../lib/gcc/arm-none-eabi/6.3.1/../../../../arm-none-eabi/lib/thumb/v7e-m/fpv4-sp/hard/libc.a(lib_a-mlock.o) (__retarget_lock_acquire_recursive)
/home/odougs/bin/ti/ccsv7/tools/compiler/gcc-arm-none-eabi-6-2017-q1-update/bin/../lib/gcc/arm-none-eabi/6.3.1/../../../../arm-none-eabi/lib/thumb/v7e-m/fpv4-sp/hard/libc.a(lib_a-reent.o)
                              /home/odougs/bin/ti/ccsv7/tools/compiler/gcc-arm-none-eabi-6-2017-q1-update/bin/../lib/gcc/arm-none-eabi/6.3.1/../../../../arm-none-eabi/lib/thumb/v7e-m/fpv4-sp/hard/libc.a(lib_a-sbrkr.o) (errno)
/home/odougs/bin/ti/ccsv7/tools/compiler/gcc-arm-none-eabi-6-2017-q1-update/bin/../lib/gcc/arm-none-eabi/6.3.1/../../../../arm-none-eabi/lib/thumb/v7e-m/fpv4-sp/hard/libc.a(lib_a-__atexit.o)
                              /home/odougs/bin/ti/ccsv7/tools/compiler/gcc-arm-none-eabi-6-2017-q1-update/bin/../lib/gcc/arm-none-eabi/6.3.1/../../../../arm-none-eabi/lib/thumb/v7e-m/fpv4-sp/hard/libc.a(lib_a-atexit.o) (__register_exitproc)
/mnt/storage/project/2kwMotorController/firmware/Tivaware/driverlib/gcc/libdriver.a(adc.o)
                              ./source/sensors.o (ADCIntClear)
/mnt/storage/project/2kwMotorController/firmware/Tivaware/driverlib/gcc/libdriver.a(can.o)
                              ./source/can.o (CANInit)
/mnt/storage/project/2kwMotorController/firmware/Tivaware/driverlib/gcc/libdriver.a(gpio.o)
                              ./source/pinconfig.o (GPIOPadConfigSet)
/mnt/storage/project/2kwMotorController/firmware/Tivaware/driverlib/gcc/libdriver.a(interrupt.o)
                              ./startup.o (IntMasterDisable)
/mnt/storage/project/2kwMotorController/firmware/Tivaware/driverlib/gcc/libdriver.a(pwm.o)
                              ./source/control.o (PWMGenConfigure)
/mnt/storage/project/2kwMotorController/firmware/Tivaware/driverlib/gcc/libdriver.a(qei.o)
                              ./source/encoder.o (QEIEnable)
/mnt/storage/project/2kwMotorController/firmware/Tivaware/driverlib/gcc/libdriver.a(sysctl.o)
                              ./source/can.o (SysCtlPeripheralEnable)
/mnt/storage/project/2kwMotorController/firmware/Tivaware/driverlib/gcc/libdriver.a(timer.o)
                              ./source/sensors.o (TimerEnable)
/mnt/storage/project/2kwMotorController/firmware/Tivaware/driverlib/gcc/libdriver.a(uart.o)
                              ./source/logger.o (UARTFIFOLevelSet)
/mnt/storage/project/2kwMotorController/firmware/Tivaware/driverlib/gcc/libdriver.a(udma.o)
                              ./source/sensors.o (uDMAEnable)
/mnt/storage/project/2kwMotorController/firmware/Tivaware/driverlib/gcc/libdriver.a(cpu.o)
                              /mnt/storage/project/2kwMotorController/firmware/Tivaware/driverlib/gcc/libdriver.a(interrupt.o) (CPUcpsid)
/home/odougs/bin/ti/ccsv7/tools/compiler/gcc-arm-none-eabi-6-2017-q1-update/bin/../lib/gcc/arm-none-eabi/6.3.1/../../../../arm-none-eabi/lib/thumb/v7e-m/fpv4-sp/hard/libnosys.a(sbrk.o)
                              /home/odougs/bin/ti/ccsv7/tools/compiler/gcc-arm-none-eabi-6-2017-q1-update/bin/../lib/gcc/arm-none-eabi/6.3.1/../../../../arm-none-eabi/lib/thumb/v7e-m/fpv4-sp/hard/libc.a(lib_a-sbrkr.o) (_sbrk)
/home/odougs/bin/ti/ccsv7/tools/compiler/gcc-arm-none-eabi-6-2017-q1-update/bin/../lib/gcc/arm-none-eabi/6.3.1/../../../../arm-none-eabi/lib/thumb/v7e-m/fpv4-sp/hard/libnosys.a(_exit.o)
                              /home/odougs/bin/ti/ccsv7/tools/compiler/gcc-arm-none-eabi-6-2017-q1-update/bin/../lib/gcc/arm-none-eabi/6.3.1/../../../../arm-none-eabi/lib/thumb/v7e-m/fpv4-sp/hard/libc.a(lib_a-exit.o) (_exit)

Allocating common symbols
Common symbol       size              file

poll_task_handle    0x4               ./source/main.o
__lock___atexit_recursive_mutex
                    0x1               /home/odougs/bin/ti/ccsv7/tools/compiler/gcc-arm-none-eabi-6-2017-q1-update/bin/../lib/gcc/arm-none-eabi/6.3.1/../../../../arm-none-eabi/lib/thumb/v7e-m/fpv4-sp/hard/libc.a(lib_a-lock.o)
__lock___arc4random_mutex
                    0x1               /home/odougs/bin/ti/ccsv7/tools/compiler/gcc-arm-none-eabi-6-2017-q1-update/bin/../lib/gcc/arm-none-eabi/6.3.1/../../../../arm-none-eabi/lib/thumb/v7e-m/fpv4-sp/hard/libc.a(lib_a-lock.o)
encoder_task_handle
                    0x4               ./source/main.o
cmdbuf              0x28              ./source/system.o
rt_adc_buffer       0x10              ./source/sensors.o
xfunc_in            0x4               ./source/xprintf.o
errno               0x4               /home/odougs/bin/ti/ccsv7/tools/compiler/gcc-arm-none-eabi-6-2017-q1-update/bin/../lib/gcc/arm-none-eabi/6.3.1/../../../../arm-none-eabi/lib/thumb/v7e-m/fpv4-sp/hard/libc.a(lib_a-reent.o)
rt_sensor_task_handle
                    0x4               ./source/main.o
xfunc_out           0x4               ./source/xprintf.o
pwm_period_ticks    0x4               ./source/control.o
xQueueRegistry      0x50              ./FreeRTOS/queue.o
__lock___env_recursive_mutex
                    0x1               /home/odougs/bin/ti/ccsv7/tools/compiler/gcc-arm-none-eabi-6-2017-q1-update/bin/../lib/gcc/arm-none-eabi/6.3.1/../../../../arm-none-eabi/lib/thumb/v7e-m/fpv4-sp/hard/libc.a(lib_a-lock.o)
__lock___sinit_recursive_mutex
                    0x1               /home/odougs/bin/ti/ccsv7/tools/compiler/gcc-arm-none-eabi-6-2017-q1-update/bin/../lib/gcc/arm-none-eabi/6.3.1/../../../../arm-none-eabi/lib/thumb/v7e-m/fpv4-sp/hard/libc.a(lib_a-lock.o)
ls_adc_buffer       0x10              ./source/sensors.o
control_task_handle
                    0x4               ./source/main.o
__lock___malloc_recursive_mutex
                    0x1               /home/odougs/bin/ti/ccsv7/tools/compiler/gcc-arm-none-eabi-6-2017-q1-update/bin/../lib/gcc/arm-none-eabi/6.3.1/../../../../arm-none-eabi/lib/thumb/v7e-m/fpv4-sp/hard/libc.a(lib_a-lock.o)
uDMA_control_table  0x400             ./source/sensors.o
system_task_handle  0x4               ./source/main.o
can_task_handle     0x4               ./source/main.o
led_task_handle     0x4               ./source/main.o
logger_task_handle  0x4               ./source/main.o
log_message_queue   0x4               ./source/logger.o
can_tx_queue        0x4               ./source/can.o
__lock___at_quick_exit_mutex
                    0x1               /home/odougs/bin/ti/ccsv7/tools/compiler/gcc-arm-none-eabi-6-2017-q1-update/bin/../lib/gcc/arm-none-eabi/6.3.1/../../../../arm-none-eabi/lib/thumb/v7e-m/fpv4-sp/hard/libc.a(lib_a-lock.o)
can_rx_queue        0x4               ./source/can.o
__lock___dd_hash_mutex
                    0x1               /home/odougs/bin/ti/ccsv7/tools/compiler/gcc-arm-none-eabi-6-2017-q1-update/bin/../lib/gcc/arm-none-eabi/6.3.1/../../../../arm-none-eabi/lib/thumb/v7e-m/fpv4-sp/hard/libc.a(lib_a-lock.o)
__lock___tz_mutex   0x1               /home/odougs/bin/ti/ccsv7/tools/compiler/gcc-arm-none-eabi-6-2017-q1-update/bin/../lib/gcc/arm-none-eabi/6.3.1/../../../../arm-none-eabi/lib/thumb/v7e-m/fpv4-sp/hard/libc.a(lib_a-lock.o)
__lock___sfp_recursive_mutex
                    0x1               /home/odougs/bin/ti/ccsv7/tools/compiler/gcc-arm-none-eabi-6-2017-q1-update/bin/../lib/gcc/arm-none-eabi/6.3.1/../../../../arm-none-eabi/lib/thumb/v7e-m/fpv4-sp/hard/libc.a(lib_a-lock.o)

Memory Configuration

Name             Origin             Length             Attributes
FLASH            0x0000000000000000 0x0000000000080000 xr
SRAM             0x0000000020000000 0x0000000000040000 xw
*default*        0x0000000000000000 0xffffffffffffffff

Linker script and memory map

LOAD /home/odougs/bin/ti/ccsv7/tools/compiler/gcc-arm-none-eabi-6-2017-q1-update/bin/../lib/gcc/arm-none-eabi/6.3.1/thumb/v7e-m/fpv4-sp/hard/crti.o
LOAD /home/odougs/bin/ti/ccsv7/tools/compiler/gcc-arm-none-eabi-6-2017-q1-update/bin/../lib/gcc/arm-none-eabi/6.3.1/thumb/v7e-m/fpv4-sp/hard/crtbegin.o
LOAD /home/odougs/bin/ti/ccsv7/tools/compiler/gcc-arm-none-eabi-6-2017-q1-update/bin/../lib/gcc/arm-none-eabi/6.3.1/../../../../arm-none-eabi/lib/thumb/v7e-m/fpv4-sp/hard/crt0.o
LOAD ./startup.o
LOAD ./FreeRTOS/event_groups.o
LOAD ./FreeRTOS/heap_1.o
LOAD ./FreeRTOS/list.o
LOAD ./FreeRTOS/port.o
LOAD ./FreeRTOS/queue.o
LOAD ./FreeRTOS/tasks.o
LOAD ./FreeRTOS/timers.o
LOAD ./source/can.o
LOAD ./source/control.o
LOAD ./source/debug.o
LOAD ./source/encoder.o
LOAD ./source/fir.o
LOAD ./source/logger.o
LOAD ./source/main.o
LOAD ./source/pinconfig.o
LOAD ./source/sensors.o
LOAD ./source/system.o
LOAD ./source/thermistor_lut.o
LOAD ./source/xprintf.o
                0x0000000000000000                PROVIDE (_intvecs_base_address, 0x0)

.intvecs        0x0000000000000000      0x208
 *(.intvecs)
 .intvecs       0x0000000000000000      0x208 ./startup.o
                0x0000000000000000                g_pfnVectors
                0x0000000020000000                PROVIDE (_vtable_base_address, 0x20000000)

.vtable
 *(.vtable)

.text           0x0000000000000210     0x8588
 CREATE_OBJECT_SYMBOLS
 *(.text)
 .text          0x0000000000000210        0x0 /home/odougs/bin/ti/ccsv7/tools/compiler/gcc-arm-none-eabi-6-2017-q1-update/bin/../lib/gcc/arm-none-eabi/6.3.1/thumb/v7e-m/fpv4-sp/hard/crti.o
 .text          0x0000000000000210       0x6c /home/odougs/bin/ti/ccsv7/tools/compiler/gcc-arm-none-eabi-6-2017-q1-update/bin/../lib/gcc/arm-none-eabi/6.3.1/thumb/v7e-m/fpv4-sp/hard/crtbegin.o
 .text          0x000000000000027c       0x74 /home/odougs/bin/ti/ccsv7/tools/compiler/gcc-arm-none-eabi-6-2017-q1-update/bin/../lib/gcc/arm-none-eabi/6.3.1/../../../../arm-none-eabi/lib/thumb/v7e-m/fpv4-sp/hard/crt0.o
                0x000000000000027c                _mainCRTStartup
                0x000000000000027c                _start
 .text          0x00000000000002f0        0x0 ./startup.o
 .text          0x00000000000002f0        0x0 ./FreeRTOS/event_groups.o
 .text          0x00000000000002f0        0x0 ./FreeRTOS/heap_1.o
 .text          0x00000000000002f0        0x0 ./FreeRTOS/list.o
 .text          0x00000000000002f0        0x0 ./FreeRTOS/port.o
 .text          0x00000000000002f0        0x0 ./FreeRTOS/queue.o
 .text          0x00000000000002f0        0x0 ./FreeRTOS/tasks.o
 .text          0x00000000000002f0        0x0 ./FreeRTOS/timers.o
 .text          0x00000000000002f0        0x0 ./source/can.o
 .text          0x00000000000002f0        0x0 ./source/control.o
 .text          0x00000000000002f0        0x0 ./source/debug.o
 .text          0x00000000000002f0        0x0 ./source/encoder.o
 .text          0x00000000000002f0        0x0 ./source/fir.o
 .text          0x00000000000002f0        0x0 ./source/logger.o
 .text          0x00000000000002f0        0x0 ./source/main.o
 .text          0x00000000000002f0        0x0 ./source/pinconfig.o
 .text          0x00000000000002f0        0x0 ./source/sensors.o
 .text          0x00000000000002f0        0x0 ./source/system.o
 .text          0x00000000000002f0        0x0 ./source/thermistor_lut.o
 .text          0x00000000000002f0        0x0 ./source/xprintf.o
 .text          0x00000000000002f0        0x0 /home/odougs/bin/ti/ccsv7/tools/compiler/gcc-arm-none-eabi-6-2017-q1-update/bin/../lib/gcc/arm-none-eabi/6.3.1/../../../../arm-none-eabi/lib/thumb/v7e-m/fpv4-sp/hard/libc.a(lib_a-calloc.o)
 .text          0x00000000000002f0        0x0 /home/odougs/bin/ti/ccsv7/tools/compiler/gcc-arm-none-eabi-6-2017-q1-update/bin/../lib/gcc/arm-none-eabi/6.3.1/../../../../arm-none-eabi/lib/thumb/v7e-m/fpv4-sp/hard/libc.a(lib_a-callocr.o)
 .text          0x00000000000002f0        0x0 /home/odougs/bin/ti/ccsv7/tools/compiler/gcc-arm-none-eabi-6-2017-q1-update/bin/../lib/gcc/arm-none-eabi/6.3.1/../../../../arm-none-eabi/lib/thumb/v7e-m/fpv4-sp/hard/libc.a(lib_a-exit.o)
 .text          0x00000000000002f0        0x0 /home/odougs/bin/ti/ccsv7/tools/compiler/gcc-arm-none-eabi-6-2017-q1-update/bin/../lib/gcc/arm-none-eabi/6.3.1/../../../../arm-none-eabi/lib/thumb/v7e-m/fpv4-sp/hard/libc.a(lib_a-impure.o)
 .text          0x00000000000002f0        0x0 /home/odougs/bin/ti/ccsv7/tools/compiler/gcc-arm-none-eabi-6-2017-q1-update/bin/../lib/gcc/arm-none-eabi/6.3.1/../../../../arm-none-eabi/lib/thumb/v7e-m/fpv4-sp/hard/libc.a(lib_a-init.o)
 .text          0x00000000000002f0        0x0 /home/odougs/bin/ti/ccsv7/tools/compiler/gcc-arm-none-eabi-6-2017-q1-update/bin/../lib/gcc/arm-none-eabi/6.3.1/../../../../arm-none-eabi/lib/thumb/v7e-m/fpv4-sp/hard/libc.a(lib_a-malloc.o)
 .text          0x00000000000002f0        0x0 /home/odougs/bin/ti/ccsv7/tools/compiler/gcc-arm-none-eabi-6-2017-q1-update/bin/../lib/gcc/arm-none-eabi/6.3.1/../../../../arm-none-eabi/lib/thumb/v7e-m/fpv4-sp/hard/libc.a(lib_a-mallocr.o)
 .text          0x00000000000002f0      0x134 /home/odougs/bin/ti/ccsv7/tools/compiler/gcc-arm-none-eabi-6-2017-q1-update/bin/../lib/gcc/arm-none-eabi/6.3.1/../../../../arm-none-eabi/lib/thumb/v7e-m/fpv4-sp/hard/libc.a(lib_a-memcpy.o)
                0x00000000000002f0                memcpy
 .text          0x0000000000000424        0x0 /home/odougs/bin/ti/ccsv7/tools/compiler/gcc-arm-none-eabi-6-2017-q1-update/bin/../lib/gcc/arm-none-eabi/6.3.1/../../../../arm-none-eabi/lib/thumb/v7e-m/fpv4-sp/hard/libc.a(lib_a-memset.o)
 .text          0x0000000000000424        0x0 /home/odougs/bin/ti/ccsv7/tools/compiler/gcc-arm-none-eabi-6-2017-q1-update/bin/../lib/gcc/arm-none-eabi/6.3.1/../../../../arm-none-eabi/lib/thumb/v7e-m/fpv4-sp/hard/libc.a(lib_a-mlock.o)
 .text          0x0000000000000424        0x0 /home/odougs/bin/ti/ccsv7/tools/compiler/gcc-arm-none-eabi-6-2017-q1-update/bin/../lib/gcc/arm-none-eabi/6.3.1/../../../../arm-none-eabi/lib/thumb/v7e-m/fpv4-sp/hard/libc.a(lib_a-sbrkr.o)
 .text          0x0000000000000424        0x0 /home/odougs/bin/ti/ccsv7/tools/compiler/gcc-arm-none-eabi-6-2017-q1-update/bin/../lib/gcc/arm-none-eabi/6.3.1/../../../../arm-none-eabi/lib/thumb/v7e-m/fpv4-sp/hard/libc.a(lib_a-__call_atexit.o)
 .text          0x0000000000000424        0x0 /home/odougs/bin/ti/ccsv7/tools/compiler/gcc-arm-none-eabi-6-2017-q1-update/bin/../lib/gcc/arm-none-eabi/6.3.1/../../../../arm-none-eabi/lib/thumb/v7e-m/fpv4-sp/hard/libc.a(lib_a-atexit.o)
 .text          0x0000000000000424        0x0 /home/odougs/bin/ti/ccsv7/tools/compiler/gcc-arm-none-eabi-6-2017-q1-update/bin/../lib/gcc/arm-none-eabi/6.3.1/../../../../arm-none-eabi/lib/thumb/v7e-m/fpv4-sp/hard/libc.a(lib_a-fini.o)
 .text          0x0000000000000424        0x0 /home/odougs/bin/ti/ccsv7/tools/compiler/gcc-arm-none-eabi-6-2017-q1-update/bin/../lib/gcc/arm-none-eabi/6.3.1/../../../../arm-none-eabi/lib/thumb/v7e-m/fpv4-sp/hard/libc.a(lib_a-freer.o)
 .text          0x0000000000000424        0x0 /home/odougs/bin/ti/ccsv7/tools/compiler/gcc-arm-none-eabi-6-2017-q1-update/bin/../lib/gcc/arm-none-eabi/6.3.1/../../../../arm-none-eabi/lib/thumb/v7e-m/fpv4-sp/hard/libc.a(lib_a-lock.o)
 .text          0x0000000000000424        0x0 /home/odougs/bin/ti/ccsv7/tools/compiler/gcc-arm-none-eabi-6-2017-q1-update/bin/../lib/gcc/arm-none-eabi/6.3.1/../../../../arm-none-eabi/lib/thumb/v7e-m/fpv4-sp/hard/libc.a(lib_a-reent.o)
 .text          0x0000000000000424        0x0 /home/odougs/bin/ti/ccsv7/tools/compiler/gcc-arm-none-eabi-6-2017-q1-update/bin/../lib/gcc/arm-none-eabi/6.3.1/../../../../arm-none-eabi/lib/thumb/v7e-m/fpv4-sp/hard/libc.a(lib_a-__atexit.o)
 .text          0x0000000000000424        0x0 /mnt/storage/project/2kwMotorController/firmware/Tivaware/driverlib/gcc/libdriver.a(adc.o)
 .text          0x0000000000000424        0x0 /mnt/storage/project/2kwMotorController/firmware/Tivaware/driverlib/gcc/libdriver.a(can.o)
 .text          0x0000000000000424        0x0 /mnt/storage/project/2kwMotorController/firmware/Tivaware/driverlib/gcc/libdriver.a(gpio.o)
 .text          0x0000000000000424        0x0 /mnt/storage/project/2kwMotorController/firmware/Tivaware/driverlib/gcc/libdriver.a(interrupt.o)
 .text          0x0000000000000424        0x0 /mnt/storage/project/2kwMotorController/firmware/Tivaware/driverlib/gcc/libdriver.a(pwm.o)
 .text          0x0000000000000424        0x0 /mnt/storage/project/2kwMotorController/firmware/Tivaware/driverlib/gcc/libdriver.a(qei.o)
 .text          0x0000000000000424        0x0 /mnt/storage/project/2kwMotorController/firmware/Tivaware/driverlib/gcc/libdriver.a(sysctl.o)
 .text          0x0000000000000424        0x0 /mnt/storage/project/2kwMotorController/firmware/Tivaware/driverlib/gcc/libdriver.a(timer.o)
 .text          0x0000000000000424        0x0 /mnt/storage/project/2kwMotorController/firmware/Tivaware/driverlib/gcc/libdriver.a(uart.o)
 .text          0x0000000000000424        0x0 /mnt/storage/project/2kwMotorController/firmware/Tivaware/driverlib/gcc/libdriver.a(udma.o)
 .text          0x0000000000000424        0x0 /mnt/storage/project/2kwMotorController/firmware/Tivaware/driverlib/gcc/libdriver.a(cpu.o)
 .text          0x0000000000000424        0x0 /home/odougs/bin/ti/ccsv7/tools/compiler/gcc-arm-none-eabi-6-2017-q1-update/bin/../lib/gcc/arm-none-eabi/6.3.1/../../../../arm-none-eabi/lib/thumb/v7e-m/fpv4-sp/hard/libnosys.a(sbrk.o)
 .text          0x0000000000000424        0x0 /home/odougs/bin/ti/ccsv7/tools/compiler/gcc-arm-none-eabi-6-2017-q1-update/bin/../lib/gcc/arm-none-eabi/6.3.1/../../../../arm-none-eabi/lib/thumb/v7e-m/fpv4-sp/hard/libnosys.a(_exit.o)
 .text          0x0000000000000424        0x0 /home/odougs/bin/ti/ccsv7/tools/compiler/gcc-arm-none-eabi-6-2017-q1-update/bin/../lib/gcc/arm-none-eabi/6.3.1/thumb/v7e-m/fpv4-sp/hard/crtend.o
 .text          0x0000000000000424        0x0 /home/odougs/bin/ti/ccsv7/tools/compiler/gcc-arm-none-eabi-6-2017-q1-update/bin/../lib/gcc/arm-none-eabi/6.3.1/thumb/v7e-m/fpv4-sp/hard/crtn.o
 *(.text.*)
 .text.NmiSR    0x0000000000000424        0x4 ./startup.o
 .text.HardFault_Handler
                0x0000000000000428       0x18 ./startup.o
 .text.IntDefaultHandler
                0x0000000000000440       0x18 ./startup.o
 .text.ResetISR
                0x0000000000000458       0x5c ./startup.o
                0x0000000000000458                ResetISR
 .text._dummy0  0x00000000000004b4        0x4 ./startup.o
                0x00000000000004b4                _dummy0
 .text.prvGetRegistersFromStack
                0x00000000000004b8       0xcc ./startup.o
                0x00000000000004b8                prvGetRegistersFromStack
 .text.xEventGroupGenericCreate
                0x0000000000000584       0x24 ./FreeRTOS/event_groups.o
                0x0000000000000584                xEventGroupGenericCreate
 .text.xEventGroupWaitBits
                0x00000000000005a8       0xf0 ./FreeRTOS/event_groups.o
                0x00000000000005a8                xEventGroupWaitBits
 .text.xEventGroupClearBits
                0x0000000000000698       0x48 ./FreeRTOS/event_groups.o
                0x0000000000000698                xEventGroupClearBits
 .text.xEventGroupGetBitsFromISR
                0x00000000000006e0       0x1c ./FreeRTOS/event_groups.o
                0x00000000000006e0                xEventGroupGetBitsFromISR
 .text.xEventGroupSetBits
                0x00000000000006fc       0x94 ./FreeRTOS/event_groups.o
                0x00000000000006fc                xEventGroupSetBits
 .text.xEventGroupSync
                0x0000000000000790       0xb4 ./FreeRTOS/event_groups.o
                0x0000000000000790                xEventGroupSync
 .text.vEventGroupDelete
                0x0000000000000844       0x4c ./FreeRTOS/event_groups.o
                0x0000000000000844                vEventGroupDelete
 .text.vEventGroupSetBitsCallback
                0x0000000000000890        0x4 ./FreeRTOS/event_groups.o
                0x0000000000000890                vEventGroupSetBitsCallback
 .text.vEventGroupClearBitsCallback
                0x0000000000000894        0x4 ./FreeRTOS/event_groups.o
                0x0000000000000894                vEventGroupClearBitsCallback
 .text.uxEventGroupGetNumber
                0x0000000000000898        0x8 ./FreeRTOS/event_groups.o
                0x0000000000000898                uxEventGroupGetNumber
 .text.pvPortMalloc
                0x00000000000008a0       0x5c ./FreeRTOS/heap_1.o
                0x00000000000008a0                pvPortMalloc
 .text.vPortFree
                0x00000000000008fc       0x18 ./FreeRTOS/heap_1.o
                0x00000000000008fc                vPortFree
 .text.vPortInitialiseBlocks
                0x0000000000000914        0xc ./FreeRTOS/heap_1.o
                0x0000000000000914                vPortInitialiseBlocks
 .text.xPortGetFreeHeapSize
                0x0000000000000920       0x10 ./FreeRTOS/heap_1.o
                0x0000000000000920                xPortGetFreeHeapSize
 .text.vListInitialise
                0x0000000000000930       0x18 ./FreeRTOS/list.o
                0x0000000000000930                vListInitialise
 .text.vListInitialiseItem
                0x0000000000000948        0x8 ./FreeRTOS/list.o
                0x0000000000000948                vListInitialiseItem
 .text.vListInsertEnd
                0x0000000000000950       0x20 ./FreeRTOS/list.o
                0x0000000000000950                vListInsertEnd
 .text.vListInsert
                0x0000000000000970       0x34 ./FreeRTOS/list.o
                0x0000000000000970                vListInsert
 .text.uxListRemove
                0x00000000000009a4       0x28 ./FreeRTOS/list.o
                0x00000000000009a4                uxListRemove
 .text.prvTaskExitError
                0x00000000000009cc       0x30 ./FreeRTOS/port.o
 .text.prvPortStartFirstTask
                0x00000000000009fc       0x20 ./FreeRTOS/port.o
 .text.vPortEnableVFP
                0x0000000000000a1c       0x14 ./FreeRTOS/port.o
 .text.pxPortInitialiseStack
                0x0000000000000a30       0x2c ./FreeRTOS/port.o
                0x0000000000000a30                pxPortInitialiseStack
 *fill*         0x0000000000000a5c        0x4 
 .text.vPortSVCHandler
                0x0000000000000a60       0x24 ./FreeRTOS/port.o
                0x0000000000000a60                vPortSVCHandler
 .text.vPortEndScheduler
                0x0000000000000a84       0x24 ./FreeRTOS/port.o
                0x0000000000000a84                vPortEndScheduler
 .text.vPortEnterCritical
                0x0000000000000aa8       0x44 ./FreeRTOS/port.o
                0x0000000000000aa8                vPortEnterCritical
 .text.vPortExitCritical
                0x0000000000000aec       0x28 ./FreeRTOS/port.o
                0x0000000000000aec                vPortExitCritical
 *fill*         0x0000000000000b14        0xc 
 .text.xPortPendSVHandler
                0x0000000000000b20       0x64 ./FreeRTOS/port.o
                0x0000000000000b20                xPortPendSVHandler
 .text.xPortSysTickHandler
                0x0000000000000b84       0x2c ./FreeRTOS/port.o
                0x0000000000000b84                xPortSysTickHandler
 .text.vPortSetupTimerInterrupt
                0x0000000000000bb0       0x1c ./FreeRTOS/port.o
                0x0000000000000bb0                vPortSetupTimerInterrupt
 .text.xPortStartScheduler
                0x0000000000000bcc       0xec ./FreeRTOS/port.o
                0x0000000000000bcc                xPortStartScheduler
 .text.vPortValidateInterruptPriority
                0x0000000000000cb8       0x5c ./FreeRTOS/port.o
                0x0000000000000cb8                vPortValidateInterruptPriority
 .text.unlikely.prvCopyDataToQueue
                0x0000000000000d14       0x6a ./FreeRTOS/queue.o
 .text.unlikely.prvCopyDataFromQueue
                0x0000000000000d7e       0x26 ./FreeRTOS/queue.o
 .text.prvUnlockQueue
                0x0000000000000da4       0x84 ./FreeRTOS/queue.o
 .text.xQueueGenericCreate.part.2
                0x0000000000000e28       0x14 ./FreeRTOS/queue.o
 .text.xQueueGenericReset
                0x0000000000000e3c       0x80 ./FreeRTOS/queue.o
                0x0000000000000e3c                xQueueGenericReset
 .text.xQueueGenericCreate
                0x0000000000000ebc       0x50 ./FreeRTOS/queue.o
                0x0000000000000ebc                xQueueGenericCreate
 .text.xQueueGenericSend
                0x0000000000000f0c      0x15c ./FreeRTOS/queue.o
                0x0000000000000f0c                xQueueGenericSend
 .text.xQueueCreateMutex
                0x0000000000001068       0x2c ./FreeRTOS/queue.o
                0x0000000000001068                xQueueCreateMutex
 .text.xQueueGiveMutexRecursive
                0x0000000000001094       0x40 ./FreeRTOS/queue.o
                0x0000000000001094                xQueueGiveMutexRecursive
 .text.xQueueGenericSendFromISR
                0x00000000000010d4       0xbc ./FreeRTOS/queue.o
                0x00000000000010d4                xQueueGenericSendFromISR
 .text.xQueueGiveFromISR
                0x0000000000001190       0xa8 ./FreeRTOS/queue.o
                0x0000000000001190                xQueueGiveFromISR
 .text.xQueueGenericReceive
                0x0000000000001238      0x180 ./FreeRTOS/queue.o
                0x0000000000001238                xQueueGenericReceive
 .text.xQueueTakeMutexRecursive
                0x00000000000013b8       0x44 ./FreeRTOS/queue.o
                0x00000000000013b8                xQueueTakeMutexRecursive
 .text.xQueueReceiveFromISR
                0x00000000000013fc       0x94 ./FreeRTOS/queue.o
                0x00000000000013fc                xQueueReceiveFromISR
 .text.xQueuePeekFromISR
                0x0000000000001490       0x7c ./FreeRTOS/queue.o
                0x0000000000001490                xQueuePeekFromISR
 .text.uxQueueMessagesWaiting
                0x000000000000150c       0x28 ./FreeRTOS/queue.o
                0x000000000000150c                uxQueueMessagesWaiting
 .text.uxQueueSpacesAvailable
                0x0000000000001534       0x2c ./FreeRTOS/queue.o
                0x0000000000001534                uxQueueSpacesAvailable
 .text.uxQueueMessagesWaitingFromISR
                0x0000000000001560       0x18 ./FreeRTOS/queue.o
                0x0000000000001560                uxQueueMessagesWaitingFromISR
 .text.vQueueDelete
                0x0000000000001578       0x4c ./FreeRTOS/queue.o
                0x0000000000001578                vQueueDelete
 .text.uxQueueGetQueueNumber
                0x00000000000015c4        0x4 ./FreeRTOS/queue.o
                0x00000000000015c4                uxQueueGetQueueNumber
 .text.vQueueSetQueueNumber
                0x00000000000015c8        0x4 ./FreeRTOS/queue.o
                0x00000000000015c8                vQueueSetQueueNumber
 .text.ucQueueGetQueueType
                0x00000000000015cc        0x8 ./FreeRTOS/queue.o
                0x00000000000015cc                ucQueueGetQueueType
 .text.xQueueIsQueueEmptyFromISR
                0x00000000000015d4       0x20 ./FreeRTOS/queue.o
                0x00000000000015d4                xQueueIsQueueEmptyFromISR
 .text.xQueueIsQueueFullFromISR
                0x00000000000015f4       0x24 ./FreeRTOS/queue.o
                0x00000000000015f4                xQueueIsQueueFullFromISR
 .text.vQueueAddToRegistry
                0x0000000000001618       0x28 ./FreeRTOS/queue.o
                0x0000000000001618                vQueueAddToRegistry
 .text.pcQueueGetQueueName
                0x0000000000001640       0x30 ./FreeRTOS/queue.o
                0x0000000000001640                pcQueueGetQueueName
 .text.vQueueUnregisterQueue
                0x0000000000001670       0x34 ./FreeRTOS/queue.o
                0x0000000000001670                vQueueUnregisterQueue
 .text.prvAddCurrentTaskToDelayedList
                0x00000000000016a4       0x90 ./FreeRTOS/tasks.o
 .text.prvResetNextTaskUnblockTime.part.1
                0x0000000000001734       0x18 ./FreeRTOS/tasks.o
 .text.xTaskGenericCreate.part.3
                0x000000000000174c      0x204 ./FreeRTOS/tasks.o
 .text.vTaskSetTimeOutState.part.5
                0x0000000000001950       0x14 ./FreeRTOS/tasks.o
 .text.prvTaskIsTaskSuspended
                0x0000000000001964       0x2c ./FreeRTOS/tasks.o
 .text.xTaskGenericCreate
                0x0000000000001990       0x40 ./FreeRTOS/tasks.o
                0x0000000000001990                xTaskGenericCreate
 .text.vTaskDelete
                0x00000000000019d0      0x110 ./FreeRTOS/tasks.o
                0x00000000000019d0                vTaskDelete
 .text.eTaskGetState
                0x0000000000001ae0       0x70 ./FreeRTOS/tasks.o
                0x0000000000001ae0                eTaskGetState
 .text.uxTaskPriorityGet
                0x0000000000001b50       0x28 ./FreeRTOS/tasks.o
                0x0000000000001b50                uxTaskPriorityGet
 .text.uxTaskPriorityGetFromISR
                0x0000000000001b78       0x38 ./FreeRTOS/tasks.o
                0x0000000000001b78                uxTaskPriorityGetFromISR
 .text.vTaskPrioritySet
                0x0000000000001bb0       0xdc ./FreeRTOS/tasks.o
                0x0000000000001bb0                vTaskPrioritySet
 .text.vTaskResume
                0x0000000000001c8c       0x94 ./FreeRTOS/tasks.o
                0x0000000000001c8c                vTaskResume
 .text.xTaskResumeFromISR
                0x0000000000001d20       0xbc ./FreeRTOS/tasks.o
                0x0000000000001d20                xTaskResumeFromISR
 .text.vTaskStartScheduler
                0x0000000000001ddc       0x7c ./FreeRTOS/tasks.o
                0x0000000000001ddc                vTaskStartScheduler
 .text.vTaskEndScheduler
                0x0000000000001e58       0x20 ./FreeRTOS/tasks.o
                0x0000000000001e58                vTaskEndScheduler
 .text.vTaskSuspendAll
                0x0000000000001e78       0x10 ./FreeRTOS/tasks.o
                0x0000000000001e78                vTaskSuspendAll
 .text.xTaskGetTickCount
                0x0000000000001e88        0xc ./FreeRTOS/tasks.o
                0x0000000000001e88                xTaskGetTickCount
 .text.xTaskGetTickCountFromISR
                0x0000000000001e94       0x10 ./FreeRTOS/tasks.o
                0x0000000000001e94                xTaskGetTickCountFromISR
 .text.uxTaskGetNumberOfTasks
                0x0000000000001ea4        0xc ./FreeRTOS/tasks.o
                0x0000000000001ea4                uxTaskGetNumberOfTasks
 .text.xTaskIncrementTick
                0x0000000000001eb0      0x154 ./FreeRTOS/tasks.o
                0x0000000000001eb0                xTaskIncrementTick
 .text.xTaskResumeAll
                0x0000000000002004      0x11c ./FreeRTOS/tasks.o
                0x0000000000002004                xTaskResumeAll
 .text.vTaskDelayUntil
                0x0000000000002120       0x9c ./FreeRTOS/tasks.o
                0x0000000000002120                vTaskDelayUntil
 .text.vTaskDelay
                0x00000000000021bc       0x4c ./FreeRTOS/tasks.o
                0x00000000000021bc                vTaskDelay
 .text.prvIdleTask
                0x0000000000002208       0x64 ./FreeRTOS/tasks.o
 .text.vTaskSwitchContext
                0x000000000000226c       0xa4 ./FreeRTOS/tasks.o
                0x000000000000226c                vTaskSwitchContext
 .text.vTaskSuspend
                0x0000000000002310       0xf4 ./FreeRTOS/tasks.o
                0x0000000000002310                vTaskSuspend
 .text.vTaskPlaceOnEventList
                0x0000000000002404       0x34 ./FreeRTOS/tasks.o
                0x0000000000002404                vTaskPlaceOnEventList
 .text.vTaskPlaceOnUnorderedEventList
                0x0000000000002438       0x58 ./FreeRTOS/tasks.o
                0x0000000000002438                vTaskPlaceOnUnorderedEventList
 .text.xTaskRemoveFromEventList
                0x0000000000002490       0x88 ./FreeRTOS/tasks.o
                0x0000000000002490                xTaskRemoveFromEventList
 .text.xTaskRemoveFromUnorderedEventList
                0x0000000000002518       0x90 ./FreeRTOS/tasks.o
                0x0000000000002518                xTaskRemoveFromUnorderedEventList
 .text.vTaskSetTimeOutState
                0x00000000000025a8       0x20 ./FreeRTOS/tasks.o
                0x00000000000025a8                vTaskSetTimeOutState
 .text.xTaskCheckForTimeOut
                0x00000000000025c8       0x88 ./FreeRTOS/tasks.o
                0x00000000000025c8                xTaskCheckForTimeOut
 .text.vTaskMissedYield
                0x0000000000002650        0xc ./FreeRTOS/tasks.o
                0x0000000000002650                vTaskMissedYield
 .text.uxTaskGetTaskNumber
                0x000000000000265c        0x8 ./FreeRTOS/tasks.o
                0x000000000000265c                uxTaskGetTaskNumber
 .text.vTaskSetTaskNumber
                0x0000000000002664        0x8 ./FreeRTOS/tasks.o
                0x0000000000002664                vTaskSetTaskNumber
 .text.vTaskGetTaskInfo
                0x000000000000266c       0x9c ./FreeRTOS/tasks.o
                0x000000000000266c                vTaskGetTaskInfo
 .text.prvListTasksWithinSingleList.part.6
                0x0000000000002708       0x50 ./FreeRTOS/tasks.o
 .text.uxTaskGetSystemState
                0x0000000000002758      0x108 ./FreeRTOS/tasks.o
                0x0000000000002758                uxTaskGetSystemState
 .text.uxTaskGetStackHighWaterMark
                0x0000000000002860       0x2c ./FreeRTOS/tasks.o
                0x0000000000002860                uxTaskGetStackHighWaterMark
 .text.xTaskGetCurrentTaskHandle
                0x000000000000288c        0xc ./FreeRTOS/tasks.o
                0x000000000000288c                xTaskGetCurrentTaskHandle
 .text.vTaskPriorityInherit
                0x0000000000002898       0x98 ./FreeRTOS/tasks.o
                0x0000000000002898                vTaskPriorityInherit
 .text.xTaskPriorityDisinherit
                0x0000000000002930       0xb4 ./FreeRTOS/tasks.o
                0x0000000000002930                xTaskPriorityDisinherit
 .text.uxTaskResetEventItemValue
                0x00000000000029e4       0x18 ./FreeRTOS/tasks.o
                0x00000000000029e4                uxTaskResetEventItemValue
 .text.pvTaskIncrementMutexHeldCount
                0x00000000000029fc       0x18 ./FreeRTOS/tasks.o
                0x00000000000029fc                pvTaskIncrementMutexHeldCount
 .text.ulTaskNotifyTake
                0x0000000000002a14       0x6c ./FreeRTOS/tasks.o
                0x0000000000002a14                ulTaskNotifyTake
 .text.xTaskNotifyWait
                0x0000000000002a80       0x8c ./FreeRTOS/tasks.o
                0x0000000000002a80                xTaskNotifyWait
 .text.xTaskGenericNotify
                0x0000000000002b0c       0xe4 ./FreeRTOS/tasks.o
                0x0000000000002b0c                xTaskGenericNotify
 .text.xTaskGenericNotifyFromISR
                0x0000000000002bf0      0x128 ./FreeRTOS/tasks.o
                0x0000000000002bf0                xTaskGenericNotifyFromISR
 .text.vTaskNotifyGiveFromISR
                0x0000000000002d18       0xec ./FreeRTOS/tasks.o
                0x0000000000002d18                vTaskNotifyGiveFromISR
 .text.xTaskNotifyStateClear
                0x0000000000002e04       0x30 ./FreeRTOS/tasks.o
                0x0000000000002e04                xTaskNotifyStateClear
 .text._dummy7  0x0000000000002e34        0x4 ./source/can.o
                0x0000000000002e34                _dummy7
 .text.can_ISR  0x0000000000002e38       0x98 ./source/can.o
                0x0000000000002e38                can_ISR
 .text.can_init
                0x0000000000002ed0       0x7c ./source/can.o
                0x0000000000002ed0                can_init
 .text.can_task_code
                0x0000000000002f4c       0x64 ./source/can.o
                0x0000000000002f4c                can_task_code
 .text.can_send
                0x0000000000002fb0       0x28 ./source/can.o
                0x0000000000002fb0                can_send
 .text.can_recv
                0x0000000000002fd8       0x1c ./source/can.o
                0x0000000000002fd8                can_recv
 .text._dummy4  0x0000000000002ff4        0x4 ./source/control.o
                0x0000000000002ff4                _dummy4
 .text.pwm_duty_update
                0x0000000000002ff8      0x110 ./source/control.o
                0x0000000000002ff8                pwm_duty_update
 .text.pwm_setup
                0x0000000000003108       0xd0 ./source/control.o
                0x0000000000003108                pwm_setup
 .text.pid_loop
                0x00000000000031d8       0x3c ./source/control.o
                0x00000000000031d8                pid_loop
 .text.pid_state_reset
                0x0000000000003214        0x8 ./source/control.o
                0x0000000000003214                pid_state_reset
 .text.hbridge_soft_start
                0x000000000000321c       0x28 ./source/control.o
                0x000000000000321c                hbridge_soft_start
 .text.load_config_regs
                0x0000000000003244       0xc8 ./source/control.o
                0x0000000000003244                load_config_regs
 .text.control_task_code
                0x000000000000330c      0x3f0 ./source/control.o
                0x000000000000330c                control_task_code
 .text._dummy6  0x00000000000036fc        0x4 ./source/debug.o
                0x00000000000036fc                _dummy6
 .text.led_get  0x0000000000003700       0x2c ./source/debug.o
                0x0000000000003700                led_get
 .text.led_set  0x000000000000372c       0x34 ./source/debug.o
                0x000000000000372c                led_set
 .text.debug_pins_set
                0x0000000000003760       0x2c ./source/debug.o
                0x0000000000003760                debug_pins_set
 .text._dummy9  0x000000000000378c        0x4 ./source/encoder.o
                0x000000000000378c                _dummy9
 .text.qei_ISR  0x0000000000003790       0x54 ./source/encoder.o
                0x0000000000003790                qei_ISR
 .text.encoder_task_code
                0x00000000000037e4      0x164 ./source/encoder.o
                0x00000000000037e4                encoder_task_code
 .text.encoder_get_motor_position_rads
                0x0000000000003948        0xc ./source/encoder.o
                0x0000000000003948                encoder_get_motor_position_rads
 .text.encoder_get_motor_velocity_rads
                0x0000000000003954        0xc ./source/encoder.o
                0x0000000000003954                encoder_get_motor_velocity_rads
 .text.encoder_poll_motor_velocity_rads
                0x0000000000003960       0x20 ./source/encoder.o
                0x0000000000003960                encoder_poll_motor_velocity_rads
 .text.fir_create
                0x0000000000003980       0x44 ./source/fir.o
                0x0000000000003980                fir_create
 .text.fir_do_filter
                0x00000000000039c4       0x70 ./source/fir.o
                0x00000000000039c4                fir_do_filter
 .text.panic_putc
                0x0000000000003a34        0xc ./source/logger.o
 .text.debug_uart_putc
                0x0000000000003a40       0x5c ./source/logger.o
 .text.debug_uart_ISR
                0x0000000000003a9c       0x70 ./source/logger.o
 .text._dummy5  0x0000000000003b0c        0x4 ./source/logger.o
                0x0000000000003b0c                _dummy5
 .text.log_msg  0x0000000000003b10       0x28 ./source/logger.o
                0x0000000000003b10                log_msg
 .text.log_msg_ISR
                0x0000000000003b38       0x24 ./source/logger.o
                0x0000000000003b38                log_msg_ISR
 .text.log_msg_panic
                0x0000000000003b5c       0x18 ./source/logger.o
                0x0000000000003b5c                log_msg_panic
 .text.logger_task_code
                0x0000000000003b74       0x80 ./source/logger.o
                0x0000000000003b74                logger_task_code
 .text.real_int_from_float
                0x0000000000003bf4       0x4c ./source/logger.o
                0x0000000000003bf4                real_int_from_float
 .text.poll_task_code
                0x0000000000003c40       0xcc ./source/main.o
                0x0000000000003c40                poll_task_code
 .text._dummy1  0x0000000000003d0c        0x4 ./source/main.o
                0x0000000000003d0c                _dummy1
 .text.vApplicationStackOverflowHook
                0x0000000000003d10        0x4 ./source/main.o
                0x0000000000003d10                vApplicationStackOverflowHook
 .text.assertion_failed
                0x0000000000003d14       0x1c ./source/main.o
                0x0000000000003d14                assertion_failed
 .text.startup.main
                0x0000000000003d30      0x178 ./source/main.o
                0x0000000000003d30                main
 .text._dummy8  0x0000000000003ea8        0x4 ./source/pinconfig.o
                0x0000000000003ea8                _dummy8
 .text.pinconfig
                0x0000000000003eac      0x284 ./source/pinconfig.o
                0x0000000000003eac                pinconfig
 .text._dummy3  0x0000000000004130        0x4 ./source/sensors.o
                0x0000000000004130                _dummy3
 .text.adc0_seq0_ISR
                0x0000000000004134       0x68 ./source/sensors.o
                0x0000000000004134                adc0_seq0_ISR
 .text.adc1_seq0_ISR
                0x000000000000419c       0x9c ./source/sensors.o
                0x000000000000419c                adc1_seq0_ISR
 .text.ls_timer_ISR
                0x0000000000004238       0x20 ./source/sensors.o
                0x0000000000004238                ls_timer_ISR
 .text.sensors_rt_current_update
                0x0000000000004258       0xd4 ./source/sensors.o
                0x0000000000004258                sensors_rt_current_update
 .text.sensor_get_motor_current
                0x000000000000432c        0xc ./source/sensors.o
                0x000000000000432c                sensor_get_motor_current
 .text.sensor_get_bus_voltage
                0x0000000000004338        0xc ./source/sensors.o
                0x0000000000004338                sensor_get_bus_voltage
 .text.sensor_get_battery_voltage
                0x0000000000004344        0xc ./source/sensors.o
                0x0000000000004344                sensor_get_battery_voltage
 .text.sensor_get_motor_temperature
                0x0000000000004350        0xc ./source/sensors.o
                0x0000000000004350                sensor_get_motor_temperature
 .text.sensor_get_hbridge_temperature
                0x000000000000435c        0xc ./source/sensors.o
                0x000000000000435c                sensor_get_hbridge_temperature
 .text.sensors_setup
                0x0000000000004368      0x1b8 ./source/sensors.o
                0x0000000000004368                sensors_setup
 .text.cmd_set_ref
                0x0000000000004520        0xc ./source/system.o
 .text.cmd_stop
                0x000000000000452c       0x10 ./source/system.o
 .text.cmd_freewheel
                0x000000000000453c        0xc ./source/system.o
 .text.cmd_set_state
                0x0000000000004548       0x18 ./source/system.o
 .text.cmd_get_config
                0x0000000000004560        0x4 ./source/system.o
 .text.cmd_node_online
                0x0000000000004564       0x1c ./source/system.o
 .text.cmd_read_sensor
                0x0000000000004580       0x2c ./source/system.o
 .text.cmd_get_state
                0x00000000000045ac       0x34 ./source/system.o
 .text.cmd_reset
                0x00000000000045e0        0x4 ./source/system.o
 .text.cmd_set_config
                0x00000000000045e4       0x20 ./source/system.o
 .text.invalid_cmd
                0x0000000000004604        0x4 ./source/system.o
 .text._dummy2  0x0000000000004608        0x4 ./source/system.o
                0x0000000000004608                _dummy2
 .text.system_raise_fault
                0x000000000000460c       0x44 ./source/system.o
                0x000000000000460c                system_raise_fault
 .text.system_lower_fault
                0x0000000000004650       0x24 ./source/system.o
                0x0000000000004650                system_lower_fault
 .text.atoi     0x0000000000004674       0x30 ./source/system.o
                0x0000000000004674                atoi
 .text.process_cmd
                0x00000000000046a4       0xcc ./source/system.o
                0x00000000000046a4                process_cmd
 .text.text_interface
                0x0000000000004770       0x4c ./source/system.o
                0x0000000000004770                text_interface
 .text.system_task_code
                0x00000000000047bc       0x34 ./source/system.o
                0x00000000000047bc                system_task_code
 .text.system_init_clocks
                0x00000000000047f0       0x1c ./source/system.o
                0x00000000000047f0                system_init_clocks
 .text.system_get_sysclk_freq
                0x000000000000480c        0xc ./source/system.o
                0x000000000000480c                system_get_sysclk_freq
 .text.system_get_node_id
                0x0000000000004818        0x4 ./source/system.o
                0x0000000000004818                system_get_node_id
 .text.system_get_control_mode
                0x000000000000481c        0xc ./source/system.o
                0x000000000000481c                system_get_control_mode
 .text.system_get_drive_mode
                0x0000000000004828        0xc ./source/system.o
                0x0000000000004828                system_get_drive_mode
 .text.system_read_config_reg
                0x0000000000004834       0x20 ./source/system.o
                0x0000000000004834                system_read_config_reg
 .text.system_get_control_target
                0x0000000000004854        0xc ./source/system.o
                0x0000000000004854                system_get_control_target
 .text.system_get_update_mode
                0x0000000000004860        0xc ./source/system.o
                0x0000000000004860                system_get_update_mode
 .text.system_get_state
                0x000000000000486c        0xc ./source/system.o
                0x000000000000486c                system_get_state
 .text.system_get_drive_enabled
                0x0000000000004878        0xc ./source/system.o
                0x0000000000004878                system_get_drive_enabled
 .text.system_get_bus_voltage
                0x0000000000004884        0xc ./source/system.o
                0x0000000000004884                system_get_bus_voltage
 .text.celsius_from_adc_raw
                0x0000000000004890       0xb0 ./source/thermistor_lut.o
                0x0000000000004890                celsius_from_adc_raw
 .text.xputc    0x0000000000004940       0x38 ./source/xprintf.o
                0x0000000000004940                xputc
 .text.xvprintf
                0x0000000000004978      0x280 ./source/xprintf.o
 .text.xputs    0x0000000000004bf8       0x18 ./source/xprintf.o
                0x0000000000004bf8                xputs
 .text.xfputs   0x0000000000004c10       0x24 ./source/xprintf.o
                0x0000000000004c10                xfputs
 .text.xprintf  0x0000000000004c34       0x1c ./source/xprintf.o
                0x0000000000004c34                xprintf
 .text.xsprintf
                0x0000000000004c50       0x30 ./source/xprintf.o
                0x0000000000004c50                xsprintf
 .text.xfprintf
                0x0000000000004c80       0x2c ./source/xprintf.o
                0x0000000000004c80                xfprintf
 .text.put_dump
                0x0000000000004cac       0xb0 ./source/xprintf.o
                0x0000000000004cac                put_dump
 .text.xgets    0x0000000000004d5c       0x54 ./source/xprintf.o
                0x0000000000004d5c                xgets
 .text.xfgets   0x0000000000004db0       0x1c ./source/xprintf.o
                0x0000000000004db0                xfgets
 .text.xatoi    0x0000000000004dcc       0xb8 ./source/xprintf.o
                0x0000000000004dcc                xatoi
 .text.calloc   0x0000000000004e84       0x10 /home/odougs/bin/ti/ccsv7/tools/compiler/gcc-arm-none-eabi-6-2017-q1-update/bin/../lib/gcc/arm-none-eabi/6.3.1/../../../../arm-none-eabi/lib/thumb/v7e-m/fpv4-sp/hard/libc.a(lib_a-calloc.o)
                0x0000000000004e84                calloc
 .text._calloc_r
                0x0000000000004e94       0x60 /home/odougs/bin/ti/ccsv7/tools/compiler/gcc-arm-none-eabi-6-2017-q1-update/bin/../lib/gcc/arm-none-eabi/6.3.1/../../../../arm-none-eabi/lib/thumb/v7e-m/fpv4-sp/hard/libc.a(lib_a-callocr.o)
                0x0000000000004e94                _calloc_r
 .text.exit     0x0000000000004ef4       0x20 /home/odougs/bin/ti/ccsv7/tools/compiler/gcc-arm-none-eabi-6-2017-q1-update/bin/../lib/gcc/arm-none-eabi/6.3.1/../../../../arm-none-eabi/lib/thumb/v7e-m/fpv4-sp/hard/libc.a(lib_a-exit.o)
                0x0000000000004ef4                exit
 .text.__libc_init_array
                0x0000000000004f14       0x50 /home/odougs/bin/ti/ccsv7/tools/compiler/gcc-arm-none-eabi-6-2017-q1-update/bin/../lib/gcc/arm-none-eabi/6.3.1/../../../../arm-none-eabi/lib/thumb/v7e-m/fpv4-sp/hard/libc.a(lib_a-init.o)
                0x0000000000004f14                __libc_init_array
 .text.malloc   0x0000000000004f64       0x10 /home/odougs/bin/ti/ccsv7/tools/compiler/gcc-arm-none-eabi-6-2017-q1-update/bin/../lib/gcc/arm-none-eabi/6.3.1/../../../../arm-none-eabi/lib/thumb/v7e-m/fpv4-sp/hard/libc.a(lib_a-malloc.o)
                0x0000000000004f64                malloc
 .text.free     0x0000000000004f74       0x10 /home/odougs/bin/ti/ccsv7/tools/compiler/gcc-arm-none-eabi-6-2017-q1-update/bin/../lib/gcc/arm-none-eabi/6.3.1/../../../../arm-none-eabi/lib/thumb/v7e-m/fpv4-sp/hard/libc.a(lib_a-malloc.o)
                0x0000000000004f74                free
 .text._malloc_r
                0x0000000000004f84      0x560 /home/odougs/bin/ti/ccsv7/tools/compiler/gcc-arm-none-eabi-6-2017-q1-update/bin/../lib/gcc/arm-none-eabi/6.3.1/../../../../arm-none-eabi/lib/thumb/v7e-m/fpv4-sp/hard/libc.a(lib_a-mallocr.o)
                0x0000000000004f84                _malloc_r
 .text.memset   0x00000000000054e4       0x9c /home/odougs/bin/ti/ccsv7/tools/compiler/gcc-arm-none-eabi-6-2017-q1-update/bin/../lib/gcc/arm-none-eabi/6.3.1/../../../../arm-none-eabi/lib/thumb/v7e-m/fpv4-sp/hard/libc.a(lib_a-memset.o)
                0x00000000000054e4                memset
 .text.__malloc_lock
                0x0000000000005580        0xc /home/odougs/bin/ti/ccsv7/tools/compiler/gcc-arm-none-eabi-6-2017-q1-update/bin/../lib/gcc/arm-none-eabi/6.3.1/../../../../arm-none-eabi/lib/thumb/v7e-m/fpv4-sp/hard/libc.a(lib_a-mlock.o)
                0x0000000000005580                __malloc_lock
 .text.__malloc_unlock
                0x000000000000558c        0xc /home/odougs/bin/ti/ccsv7/tools/compiler/gcc-arm-none-eabi-6-2017-q1-update/bin/../lib/gcc/arm-none-eabi/6.3.1/../../../../arm-none-eabi/lib/thumb/v7e-m/fpv4-sp/hard/libc.a(lib_a-mlock.o)
                0x000000000000558c                __malloc_unlock
 .text._sbrk_r  0x0000000000005598       0x24 /home/odougs/bin/ti/ccsv7/tools/compiler/gcc-arm-none-eabi-6-2017-q1-update/bin/../lib/gcc/arm-none-eabi/6.3.1/../../../../arm-none-eabi/lib/thumb/v7e-m/fpv4-sp/hard/libc.a(lib_a-sbrkr.o)
                0x0000000000005598                _sbrk_r
 .text.startup.register_fini
                0x00000000000055bc       0x14 /home/odougs/bin/ti/ccsv7/tools/compiler/gcc-arm-none-eabi-6-2017-q1-update/bin/../lib/gcc/arm-none-eabi/6.3.1/../../../../arm-none-eabi/lib/thumb/v7e-m/fpv4-sp/hard/libc.a(lib_a-__call_atexit.o)
 .text.__call_exitprocs
                0x00000000000055d0       0xe8 /home/odougs/bin/ti/ccsv7/tools/compiler/gcc-arm-none-eabi-6-2017-q1-update/bin/../lib/gcc/arm-none-eabi/6.3.1/../../../../arm-none-eabi/lib/thumb/v7e-m/fpv4-sp/hard/libc.a(lib_a-__call_atexit.o)
                0x00000000000055d0                __call_exitprocs
 .text.atexit   0x00000000000056b8        0xc /home/odougs/bin/ti/ccsv7/tools/compiler/gcc-arm-none-eabi-6-2017-q1-update/bin/../lib/gcc/arm-none-eabi/6.3.1/../../../../arm-none-eabi/lib/thumb/v7e-m/fpv4-sp/hard/libc.a(lib_a-atexit.o)
                0x00000000000056b8                atexit
 .text.__libc_fini_array
                0x00000000000056c4       0x34 /home/odougs/bin/ti/ccsv7/tools/compiler/gcc-arm-none-eabi-6-2017-q1-update/bin/../lib/gcc/arm-none-eabi/6.3.1/../../../../arm-none-eabi/lib/thumb/v7e-m/fpv4-sp/hard/libc.a(lib_a-fini.o)
                0x00000000000056c4                __libc_fini_array
 .text._malloc_trim_r
                0x00000000000056f8       0xa0 /home/odougs/bin/ti/ccsv7/tools/compiler/gcc-arm-none-eabi-6-2017-q1-update/bin/../lib/gcc/arm-none-eabi/6.3.1/../../../../arm-none-eabi/lib/thumb/v7e-m/fpv4-sp/hard/libc.a(lib_a-freer.o)
                0x00000000000056f8                _malloc_trim_r
 .text._free_r  0x0000000000005798      0x1cc /home/odougs/bin/ti/ccsv7/tools/compiler/gcc-arm-none-eabi-6-2017-q1-update/bin/../lib/gcc/arm-none-eabi/6.3.1/../../../../arm-none-eabi/lib/thumb/v7e-m/fpv4-sp/hard/libc.a(lib_a-freer.o)
                0x0000000000005798                _free_r
 .text.__retarget_lock_init
                0x0000000000005964        0x4 /home/odougs/bin/ti/ccsv7/tools/compiler/gcc-arm-none-eabi-6-2017-q1-update/bin/../lib/gcc/arm-none-eabi/6.3.1/../../../../arm-none-eabi/lib/thumb/v7e-m/fpv4-sp/hard/libc.a(lib_a-lock.o)
                0x0000000000005964                __retarget_lock_init
 .text.__retarget_lock_init_recursive
                0x0000000000005968        0x4 /home/odougs/bin/ti/ccsv7/tools/compiler/gcc-arm-none-eabi-6-2017-q1-update/bin/../lib/gcc/arm-none-eabi/6.3.1/../../../../arm-none-eabi/lib/thumb/v7e-m/fpv4-sp/hard/libc.a(lib_a-lock.o)
                0x0000000000005968                __retarget_lock_init_recursive
 .text.__retarget_lock_close
                0x000000000000596c        0x4 /home/odougs/bin/ti/ccsv7/tools/compiler/gcc-arm-none-eabi-6-2017-q1-update/bin/../lib/gcc/arm-none-eabi/6.3.1/../../../../arm-none-eabi/lib/thumb/v7e-m/fpv4-sp/hard/libc.a(lib_a-lock.o)
                0x000000000000596c                __retarget_lock_close
 .text.__retarget_lock_close_recursive
                0x0000000000005970        0x4 /home/odougs/bin/ti/ccsv7/tools/compiler/gcc-arm-none-eabi-6-2017-q1-update/bin/../lib/gcc/arm-none-eabi/6.3.1/../../../../arm-none-eabi/lib/thumb/v7e-m/fpv4-sp/hard/libc.a(lib_a-lock.o)
                0x0000000000005970                __retarget_lock_close_recursive
 .text.__retarget_lock_acquire
                0x0000000000005974        0x4 /home/odougs/bin/ti/ccsv7/tools/compiler/gcc-arm-none-eabi-6-2017-q1-update/bin/../lib/gcc/arm-none-eabi/6.3.1/../../../../arm-none-eabi/lib/thumb/v7e-m/fpv4-sp/hard/libc.a(lib_a-lock.o)
                0x0000000000005974                __retarget_lock_acquire
 .text.__retarget_lock_acquire_recursive
                0x0000000000005978        0x4 /home/odougs/bin/ti/ccsv7/tools/compiler/gcc-arm-none-eabi-6-2017-q1-update/bin/../lib/gcc/arm-none-eabi/6.3.1/../../../../arm-none-eabi/lib/thumb/v7e-m/fpv4-sp/hard/libc.a(lib_a-lock.o)
                0x0000000000005978                __retarget_lock_acquire_recursive
 .text.__retarget_lock_try_acquire
                0x000000000000597c        0x4 /home/odougs/bin/ti/ccsv7/tools/compiler/gcc-arm-none-eabi-6-2017-q1-update/bin/../lib/gcc/arm-none-eabi/6.3.1/../../../../arm-none-eabi/lib/thumb/v7e-m/fpv4-sp/hard/libc.a(lib_a-lock.o)
                0x000000000000597c                __retarget_lock_try_acquire
 .text.__retarget_lock_try_acquire_recursive
                0x0000000000005980        0x4 /home/odougs/bin/ti/ccsv7/tools/compiler/gcc-arm-none-eabi-6-2017-q1-update/bin/../lib/gcc/arm-none-eabi/6.3.1/../../../../arm-none-eabi/lib/thumb/v7e-m/fpv4-sp/hard/libc.a(lib_a-lock.o)
                0x0000000000005980                __retarget_lock_try_acquire_recursive
 .text.__retarget_lock_release
                0x0000000000005984        0x4 /home/odougs/bin/ti/ccsv7/tools/compiler/gcc-arm-none-eabi-6-2017-q1-update/bin/../lib/gcc/arm-none-eabi/6.3.1/../../../../arm-none-eabi/lib/thumb/v7e-m/fpv4-sp/hard/libc.a(lib_a-lock.o)
                0x0000000000005984                __retarget_lock_release
 .text.__retarget_lock_release_recursive
                0x0000000000005988        0x4 /home/odougs/bin/ti/ccsv7/tools/compiler/gcc-arm-none-eabi-6-2017-q1-update/bin/../lib/gcc/arm-none-eabi/6.3.1/../../../../arm-none-eabi/lib/thumb/v7e-m/fpv4-sp/hard/libc.a(lib_a-lock.o)
                0x0000000000005988                __retarget_lock_release_recursive
 .text.cleanup_glue
                0x000000000000598c       0x1c /home/odougs/bin/ti/ccsv7/tools/compiler/gcc-arm-none-eabi-6-2017-q1-update/bin/../lib/gcc/arm-none-eabi/6.3.1/../../../../arm-none-eabi/lib/thumb/v7e-m/fpv4-sp/hard/libc.a(lib_a-reent.o)
                0x000000000000598c                cleanup_glue
 .text._reclaim_reent
                0x00000000000059a8       0x88 /home/odougs/bin/ti/ccsv7/tools/compiler/gcc-arm-none-eabi-6-2017-q1-update/bin/../lib/gcc/arm-none-eabi/6.3.1/../../../../arm-none-eabi/lib/thumb/v7e-m/fpv4-sp/hard/libc.a(lib_a-reent.o)
                0x00000000000059a8                _reclaim_reent
 .text.__register_exitproc
                0x0000000000005a30       0xc4 /home/odougs/bin/ti/ccsv7/tools/compiler/gcc-arm-none-eabi-6-2017-q1-update/bin/../lib/gcc/arm-none-eabi/6.3.1/../../../../arm-none-eabi/lib/thumb/v7e-m/fpv4-sp/hard/libc.a(lib_a-__atexit.o)
                0x0000000000005a30                __register_exitproc
 .text._ADCIntNumberGet
                0x0000000000005af4       0x54 /mnt/storage/project/2kwMotorController/firmware/Tivaware/driverlib/gcc/libdriver.a(adc.o)
 .text.ADCIntRegister
                0x0000000000005b48       0x1a /mnt/storage/project/2kwMotorController/firmware/Tivaware/driverlib/gcc/libdriver.a(adc.o)
                0x0000000000005b48                ADCIntRegister
 .text.ADCIntUnregister
                0x0000000000005b62       0x16 /mnt/storage/project/2kwMotorController/firmware/Tivaware/driverlib/gcc/libdriver.a(adc.o)
                0x0000000000005b62                ADCIntUnregister
 .text.ADCIntDisable
                0x0000000000005b78       0x10 /mnt/storage/project/2kwMotorController/firmware/Tivaware/driverlib/gcc/libdriver.a(adc.o)
                0x0000000000005b78                ADCIntDisable
 .text.ADCIntEnable
                0x0000000000005b88       0x10 /mnt/storage/project/2kwMotorController/firmware/Tivaware/driverlib/gcc/libdriver.a(adc.o)
                0x0000000000005b88                ADCIntEnable
 .text.ADCIntStatus
                0x0000000000005b98       0x34 /mnt/storage/project/2kwMotorController/firmware/Tivaware/driverlib/gcc/libdriver.a(adc.o)
                0x0000000000005b98                ADCIntStatus
 .text.ADCIntClear
                0x0000000000005bcc        0xa /mnt/storage/project/2kwMotorController/firmware/Tivaware/driverlib/gcc/libdriver.a(adc.o)
                0x0000000000005bcc                ADCIntClear
 .text.ADCSequenceEnable
                0x0000000000005bd6        0xe /mnt/storage/project/2kwMotorController/firmware/Tivaware/driverlib/gcc/libdriver.a(adc.o)
                0x0000000000005bd6                ADCSequenceEnable
 .text.ADCSequenceDisable
                0x0000000000005be4       0x10 /mnt/storage/project/2kwMotorController/firmware/Tivaware/driverlib/gcc/libdriver.a(adc.o)
                0x0000000000005be4                ADCSequenceDisable
 .text.ADCSequenceConfigure
                0x0000000000005bf4       0x54 /mnt/storage/project/2kwMotorController/firmware/Tivaware/driverlib/gcc/libdriver.a(adc.o)
                0x0000000000005bf4                ADCSequenceConfigure
 .text.ADCSequenceStepConfigure
                0x0000000000005c48       0x84 /mnt/storage/project/2kwMotorController/firmware/Tivaware/driverlib/gcc/libdriver.a(adc.o)
                0x0000000000005c48                ADCSequenceStepConfigure
 .text.ADCSequenceOverflow
                0x0000000000005ccc        0xc /mnt/storage/project/2kwMotorController/firmware/Tivaware/driverlib/gcc/libdriver.a(adc.o)
                0x0000000000005ccc                ADCSequenceOverflow
 .text.ADCSequenceOverflowClear
                0x0000000000005cd8        0xa /mnt/storage/project/2kwMotorController/firmware/Tivaware/driverlib/gcc/libdriver.a(adc.o)
                0x0000000000005cd8                ADCSequenceOverflowClear
 .text.ADCSequenceUnderflow
                0x0000000000005ce2        0xc /mnt/storage/project/2kwMotorController/firmware/Tivaware/driverlib/gcc/libdriver.a(adc.o)
                0x0000000000005ce2                ADCSequenceUnderflow
 .text.ADCSequenceUnderflowClear
                0x0000000000005cee        0xa /mnt/storage/project/2kwMotorController/firmware/Tivaware/driverlib/gcc/libdriver.a(adc.o)
                0x0000000000005cee                ADCSequenceUnderflowClear
 .text.ADCSequenceDataGet
                0x0000000000005cf8       0x1e /mnt/storage/project/2kwMotorController/firmware/Tivaware/driverlib/gcc/libdriver.a(adc.o)
                0x0000000000005cf8                ADCSequenceDataGet
 .text.ADCProcessorTrigger
                0x0000000000005d16       0x18 /mnt/storage/project/2kwMotorController/firmware/Tivaware/driverlib/gcc/libdriver.a(adc.o)
                0x0000000000005d16                ADCProcessorTrigger
 *fill*         0x0000000000005d2e        0x2 
 .text.ADCSoftwareOversampleConfigure
                0x0000000000005d30       0x28 /mnt/storage/project/2kwMotorController/firmware/Tivaware/driverlib/gcc/libdriver.a(adc.o)
                0x0000000000005d30                ADCSoftwareOversampleConfigure
 .text.ADCSoftwareOversampleStepConfigure
                0x0000000000005d58       0x8c /mnt/storage/project/2kwMotorController/firmware/Tivaware/driverlib/gcc/libdriver.a(adc.o)
                0x0000000000005d58                ADCSoftwareOversampleStepConfigure
 .text.ADCSoftwareOversampleDataGet
                0x0000000000005de4       0x48 /mnt/storage/project/2kwMotorController/firmware/Tivaware/driverlib/gcc/libdriver.a(adc.o)
                0x0000000000005de4                ADCSoftwareOversampleDataGet
 .text.ADCHardwareOversampleConfigure
                0x0000000000005e2c       0x10 /mnt/storage/project/2kwMotorController/firmware/Tivaware/driverlib/gcc/libdriver.a(adc.o)
                0x0000000000005e2c                ADCHardwareOversampleConfigure
 .text.ADCComparatorConfigure
                0x0000000000005e3c        0xa /mnt/storage/project/2kwMotorController/firmware/Tivaware/driverlib/gcc/libdriver.a(adc.o)
                0x0000000000005e3c                ADCComparatorConfigure
 .text.ADCComparatorRegionSet
                0x0000000000005e46        0xe /mnt/storage/project/2kwMotorController/firmware/Tivaware/driverlib/gcc/libdriver.a(adc.o)
                0x0000000000005e46                ADCComparatorRegionSet
 .text.ADCComparatorReset
                0x0000000000005e54       0x1e /mnt/storage/project/2kwMotorController/firmware/Tivaware/driverlib/gcc/libdriver.a(adc.o)
                0x0000000000005e54                ADCComparatorReset
 .text.ADCComparatorIntDisable
                0x0000000000005e72       0x12 /mnt/storage/project/2kwMotorController/firmware/Tivaware/driverlib/gcc/libdriver.a(adc.o)
                0x0000000000005e72                ADCComparatorIntDisable
 .text.ADCComparatorIntEnable
                0x0000000000005e84       0x10 /mnt/storage/project/2kwMotorController/firmware/Tivaware/driverlib/gcc/libdriver.a(adc.o)
                0x0000000000005e84                ADCComparatorIntEnable
 .text.ADCComparatorIntStatus
                0x0000000000005e94        0x4 /mnt/storage/project/2kwMotorController/firmware/Tivaware/driverlib/gcc/libdriver.a(adc.o)
                0x0000000000005e94                ADCComparatorIntStatus
 .text.ADCComparatorIntClear
                0x0000000000005e98        0x4 /mnt/storage/project/2kwMotorController/firmware/Tivaware/driverlib/gcc/libdriver.a(adc.o)
                0x0000000000005e98                ADCComparatorIntClear
 .text.ADCIntDisableEx
                0x0000000000005e9c        0xa /mnt/storage/project/2kwMotorController/firmware/Tivaware/driverlib/gcc/libdriver.a(adc.o)
                0x0000000000005e9c                ADCIntDisableEx
 .text.ADCIntEnableEx
                0x0000000000005ea6        0x8 /mnt/storage/project/2kwMotorController/firmware/Tivaware/driverlib/gcc/libdriver.a(adc.o)
                0x0000000000005ea6                ADCIntEnableEx
 .text.ADCIntStatusEx
                0x0000000000005eae       0x12 /mnt/storage/project/2kwMotorController/firmware/Tivaware/driverlib/gcc/libdriver.a(adc.o)
                0x0000000000005eae                ADCIntStatusEx
 .text.ADCIntClearEx
                0x0000000000005ec0        0x4 /mnt/storage/project/2kwMotorController/firmware/Tivaware/driverlib/gcc/libdriver.a(adc.o)
                0x0000000000005ec0                ADCIntClearEx
 .text.ADCReferenceSet
                0x0000000000005ec4        0xc /mnt/storage/project/2kwMotorController/firmware/Tivaware/driverlib/gcc/libdriver.a(adc.o)
                0x0000000000005ec4                ADCReferenceSet
 .text.ADCReferenceGet
                0x0000000000005ed0        0x8 /mnt/storage/project/2kwMotorController/firmware/Tivaware/driverlib/gcc/libdriver.a(adc.o)
                0x0000000000005ed0                ADCReferenceGet
 .text.ADCPhaseDelaySet
                0x0000000000005ed8        0x4 /mnt/storage/project/2kwMotorController/firmware/Tivaware/driverlib/gcc/libdriver.a(adc.o)
                0x0000000000005ed8                ADCPhaseDelaySet
 .text.ADCPhaseDelayGet
                0x0000000000005edc        0x4 /mnt/storage/project/2kwMotorController/firmware/Tivaware/driverlib/gcc/libdriver.a(adc.o)
                0x0000000000005edc                ADCPhaseDelayGet
 .text.ADCSequenceDMAEnable
                0x0000000000005ee0       0x10 /mnt/storage/project/2kwMotorController/firmware/Tivaware/driverlib/gcc/libdriver.a(adc.o)
                0x0000000000005ee0                ADCSequenceDMAEnable
 .text.ADCSequenceDMADisable
                0x0000000000005ef0       0x12 /mnt/storage/project/2kwMotorController/firmware/Tivaware/driverlib/gcc/libdriver.a(adc.o)
                0x0000000000005ef0                ADCSequenceDMADisable
 .text.ADCBusy  0x0000000000005f02        0x8 /mnt/storage/project/2kwMotorController/firmware/Tivaware/driverlib/gcc/libdriver.a(adc.o)
                0x0000000000005f02                ADCBusy
 .text.ADCClockConfigSet
                0x0000000000005f0a       0x18 /mnt/storage/project/2kwMotorController/firmware/Tivaware/driverlib/gcc/libdriver.a(adc.o)
                0x0000000000005f0a                ADCClockConfigSet
 .text.ADCClockConfigGet
                0x0000000000005f22       0x1e /mnt/storage/project/2kwMotorController/firmware/Tivaware/driverlib/gcc/libdriver.a(adc.o)
                0x0000000000005f22                ADCClockConfigGet
 .text._CANIntNumberGet
                0x0000000000005f40       0x60 /mnt/storage/project/2kwMotorController/firmware/Tivaware/driverlib/gcc/libdriver.a(can.o)
 .text.CANInit  0x0000000000005fa0       0x40 /mnt/storage/project/2kwMotorController/firmware/Tivaware/driverlib/gcc/libdriver.a(can.o)
                0x0000000000005fa0                CANInit
 .text.CANEnable
                0x0000000000005fe0        0xa /mnt/storage/project/2kwMotorController/firmware/Tivaware/driverlib/gcc/libdriver.a(can.o)
                0x0000000000005fe0                CANEnable
 .text.CANDisable
                0x0000000000005fea        0xa /mnt/storage/project/2kwMotorController/firmware/Tivaware/driverlib/gcc/libdriver.a(can.o)
                0x0000000000005fea                CANDisable
 .text.CANBitTimingGet
                0x0000000000005ff4       0x2e /mnt/storage/project/2kwMotorController/firmware/Tivaware/driverlib/gcc/libdriver.a(can.o)
                0x0000000000005ff4                CANBitTimingGet
 *fill*         0x0000000000006022        0x2 
 .text.CANBitRateSet
                0x0000000000006024       0x60 /mnt/storage/project/2kwMotorController/firmware/Tivaware/driverlib/gcc/libdriver.a(can.o)
                0x0000000000006024                CANBitRateSet
 .text.CANBitTimingSet
                0x0000000000006084       0x52 /mnt/storage/project/2kwMotorController/firmware/Tivaware/driverlib/gcc/libdriver.a(can.o)
                0x0000000000006084                CANBitTimingSet
 .text.CANIntRegister
                0x00000000000060d6       0x1a /mnt/storage/project/2kwMotorController/firmware/Tivaware/driverlib/gcc/libdriver.a(can.o)
                0x00000000000060d6                CANIntRegister
 .text.CANIntUnregister
                0x00000000000060f0       0x16 /mnt/storage/project/2kwMotorController/firmware/Tivaware/driverlib/gcc/libdriver.a(can.o)
                0x00000000000060f0                CANIntUnregister
 .text.CANIntEnable
                0x0000000000006106        0x8 /mnt/storage/project/2kwMotorController/firmware/Tivaware/driverlib/gcc/libdriver.a(can.o)
                0x0000000000006106                CANIntEnable
 .text.CANIntDisable
                0x000000000000610e        0xa /mnt/storage/project/2kwMotorController/firmware/Tivaware/driverlib/gcc/libdriver.a(can.o)
                0x000000000000610e                CANIntDisable
 .text.CANIntStatus
                0x0000000000006118       0x1e /mnt/storage/project/2kwMotorController/firmware/Tivaware/driverlib/gcc/libdriver.a(can.o)
                0x0000000000006118                CANIntStatus
 .text.CANIntClear
                0x0000000000006136       0x26 /mnt/storage/project/2kwMotorController/firmware/Tivaware/driverlib/gcc/libdriver.a(can.o)
                0x0000000000006136                CANIntClear
 .text.CANRetrySet
                0x000000000000615c       0x12 /mnt/storage/project/2kwMotorController/firmware/Tivaware/driverlib/gcc/libdriver.a(can.o)
                0x000000000000615c                CANRetrySet
 .text.CANRetryGet
                0x000000000000616e        0xc /mnt/storage/project/2kwMotorController/firmware/Tivaware/driverlib/gcc/libdriver.a(can.o)
                0x000000000000616e                CANRetryGet
 .text.CANStatusGet
                0x000000000000617a       0x3e /mnt/storage/project/2kwMotorController/firmware/Tivaware/driverlib/gcc/libdriver.a(can.o)
                0x000000000000617a                CANStatusGet
 .text.CANErrCntrGet
                0x00000000000061b8       0x12 /mnt/storage/project/2kwMotorController/firmware/Tivaware/driverlib/gcc/libdriver.a(can.o)
                0x00000000000061b8                CANErrCntrGet
 .text.CANMessageSet
                0x00000000000061ca      0x164 /mnt/storage/project/2kwMotorController/firmware/Tivaware/driverlib/gcc/libdriver.a(can.o)
                0x00000000000061ca                CANMessageSet
 .text.CANMessageGet
                0x000000000000632e      0x152 /mnt/storage/project/2kwMotorController/firmware/Tivaware/driverlib/gcc/libdriver.a(can.o)
                0x000000000000632e                CANMessageGet
 .text.CANMessageClear
                0x0000000000006480       0x1a /mnt/storage/project/2kwMotorController/firmware/Tivaware/driverlib/gcc/libdriver.a(can.o)
                0x0000000000006480                CANMessageClear
 *fill*         0x000000000000649a        0x2 
 .text._GPIOIntNumberGet
                0x000000000000649c       0x48 /mnt/storage/project/2kwMotorController/firmware/Tivaware/driverlib/gcc/libdriver.a(gpio.o)
 .text.GPIODirModeSet
                0x00000000000064e4       0x2e /mnt/storage/project/2kwMotorController/firmware/Tivaware/driverlib/gcc/libdriver.a(gpio.o)
                0x00000000000064e4                GPIODirModeSet
 .text.GPIODirModeGet
                0x0000000000006512       0x24 /mnt/storage/project/2kwMotorController/firmware/Tivaware/driverlib/gcc/libdriver.a(gpio.o)
                0x0000000000006512                GPIODirModeGet
 .text.GPIOIntTypeSet
                0x0000000000006536       0x5a /mnt/storage/project/2kwMotorController/firmware/Tivaware/driverlib/gcc/libdriver.a(gpio.o)
                0x0000000000006536                GPIOIntTypeSet
 .text.GPIOIntTypeGet
                0x0000000000006590       0x4a /mnt/storage/project/2kwMotorController/firmware/Tivaware/driverlib/gcc/libdriver.a(gpio.o)
                0x0000000000006590                GPIOIntTypeGet
 .text.GPIOPadConfigSet
                0x00000000000065da      0x130 /mnt/storage/project/2kwMotorController/firmware/Tivaware/driverlib/gcc/libdriver.a(gpio.o)
                0x00000000000065da                GPIOPadConfigSet
 .text.GPIOPadConfigGet
                0x000000000000670a       0xc4 /mnt/storage/project/2kwMotorController/firmware/Tivaware/driverlib/gcc/libdriver.a(gpio.o)
                0x000000000000670a                GPIOPadConfigGet
 .text.GPIOIntEnable
                0x00000000000067ce        0xc /mnt/storage/project/2kwMotorController/firmware/Tivaware/driverlib/gcc/libdriver.a(gpio.o)
                0x00000000000067ce                GPIOIntEnable
 .text.GPIOIntDisable
                0x00000000000067da        0xe /mnt/storage/project/2kwMotorController/firmware/Tivaware/driverlib/gcc/libdriver.a(gpio.o)
                0x00000000000067da                GPIOIntDisable
 .text.GPIOIntStatus
                0x00000000000067e8        0xe /mnt/storage/project/2kwMotorController/firmware/Tivaware/driverlib/gcc/libdriver.a(gpio.o)
                0x00000000000067e8                GPIOIntStatus
 .text.GPIOIntClear
                0x00000000000067f6        0x6 /mnt/storage/project/2kwMotorController/firmware/Tivaware/driverlib/gcc/libdriver.a(gpio.o)
                0x00000000000067f6                GPIOIntClear
 .text.GPIOIntRegister
                0x00000000000067fc       0x1a /mnt/storage/project/2kwMotorController/firmware/Tivaware/driverlib/gcc/libdriver.a(gpio.o)
                0x00000000000067fc                GPIOIntRegister
 .text.GPIOIntUnregister
                0x0000000000006816       0x16 /mnt/storage/project/2kwMotorController/firmware/Tivaware/driverlib/gcc/libdriver.a(gpio.o)
                0x0000000000006816                GPIOIntUnregister
 .text.GPIOIntRegisterPin
                0x000000000000682c       0x1e /mnt/storage/project/2kwMotorController/firmware/Tivaware/driverlib/gcc/libdriver.a(gpio.o)
                0x000000000000682c                GPIOIntRegisterPin
 .text.GPIOIntUnregisterPin
                0x000000000000684a       0x1a /mnt/storage/project/2kwMotorController/firmware/Tivaware/driverlib/gcc/libdriver.a(gpio.o)
                0x000000000000684a                GPIOIntUnregisterPin
 .text.GPIOPinRead
                0x0000000000006864        0x6 /mnt/storage/project/2kwMotorController/firmware/Tivaware/driverlib/gcc/libdriver.a(gpio.o)
                0x0000000000006864                GPIOPinRead
 .text.GPIOPinWrite
                0x000000000000686a        0x6 /mnt/storage/project/2kwMotorController/firmware/Tivaware/driverlib/gcc/libdriver.a(gpio.o)
                0x000000000000686a                GPIOPinWrite
 .text.GPIOPinTypeADC
                0x0000000000006870       0x1c /mnt/storage/project/2kwMotorController/firmware/Tivaware/driverlib/gcc/libdriver.a(gpio.o)
                0x0000000000006870                GPIOPinTypeADC
 .text.GPIOPinTypeCAN
                0x000000000000688c       0x1c /mnt/storage/project/2kwMotorController/firmware/Tivaware/driverlib/gcc/libdriver.a(gpio.o)
                0x000000000000688c                GPIOPinTypeCAN
 .text.GPIOPinTypeComparator
                0x00000000000068a8       0x1c /mnt/storage/project/2kwMotorController/firmware/Tivaware/driverlib/gcc/libdriver.a(gpio.o)
                0x00000000000068a8                GPIOPinTypeComparator
 .text.GPIOPinTypeComparatorOutput
                0x00000000000068c4       0x1c /mnt/storage/project/2kwMotorController/firmware/Tivaware/driverlib/gcc/libdriver.a(gpio.o)
                0x00000000000068c4                GPIOPinTypeComparatorOutput
 .text.GPIOPinTypeDIVSCLK
                0x00000000000068e0       0x1c /mnt/storage/project/2kwMotorController/firmware/Tivaware/driverlib/gcc/libdriver.a(gpio.o)
                0x00000000000068e0                GPIOPinTypeDIVSCLK
 .text.GPIOPinTypeEPI
                0x00000000000068fc       0x1c /mnt/storage/project/2kwMotorController/firmware/Tivaware/driverlib/gcc/libdriver.a(gpio.o)
                0x00000000000068fc                GPIOPinTypeEPI
 .text.GPIOPinTypeEthernetLED
                0x0000000000006918       0x1c /mnt/storage/project/2kwMotorController/firmware/Tivaware/driverlib/gcc/libdriver.a(gpio.o)
                0x0000000000006918                GPIOPinTypeEthernetLED
 .text.GPIOPinTypeEthernetMII
                0x0000000000006934       0x1c /mnt/storage/project/2kwMotorController/firmware/Tivaware/driverlib/gcc/libdriver.a(gpio.o)
                0x0000000000006934                GPIOPinTypeEthernetMII
 .text.GPIOPinTypeGPIOInput
                0x0000000000006950       0x1c /mnt/storage/project/2kwMotorController/firmware/Tivaware/driverlib/gcc/libdriver.a(gpio.o)
                0x0000000000006950                GPIOPinTypeGPIOInput
 .text.GPIOPinTypeGPIOOutput
                0x000000000000696c       0x1c /mnt/storage/project/2kwMotorController/firmware/Tivaware/driverlib/gcc/libdriver.a(gpio.o)
                0x000000000000696c                GPIOPinTypeGPIOOutput
 .text.GPIOPinTypeGPIOOutputOD
                0x0000000000006988       0x1c /mnt/storage/project/2kwMotorController/firmware/Tivaware/driverlib/gcc/libdriver.a(gpio.o)
                0x0000000000006988                GPIOPinTypeGPIOOutputOD
 .text.GPIOPinTypeHibernateRTCCLK
                0x00000000000069a4       0x1c /mnt/storage/project/2kwMotorController/firmware/Tivaware/driverlib/gcc/libdriver.a(gpio.o)
                0x00000000000069a4                GPIOPinTypeHibernateRTCCLK
 .text.GPIOPinTypeI2C
                0x00000000000069c0       0x1c /mnt/storage/project/2kwMotorController/firmware/Tivaware/driverlib/gcc/libdriver.a(gpio.o)
                0x00000000000069c0                GPIOPinTypeI2C
 .text.GPIOPinTypeI2CSCL
                0x00000000000069dc       0x1c /mnt/storage/project/2kwMotorController/firmware/Tivaware/driverlib/gcc/libdriver.a(gpio.o)
                0x00000000000069dc                GPIOPinTypeI2CSCL
 .text.GPIOPinTypeLCD
                0x00000000000069f8       0x1c /mnt/storage/project/2kwMotorController/firmware/Tivaware/driverlib/gcc/libdriver.a(gpio.o)
                0x00000000000069f8                GPIOPinTypeLCD
 .text.GPIOPinTypeOneWire
                0x0000000000006a14       0x1c /mnt/storage/project/2kwMotorController/firmware/Tivaware/driverlib/gcc/libdriver.a(gpio.o)
                0x0000000000006a14                GPIOPinTypeOneWire
 .text.GPIOPinTypePWM
                0x0000000000006a30       0x1c /mnt/storage/project/2kwMotorController/firmware/Tivaware/driverlib/gcc/libdriver.a(gpio.o)
                0x0000000000006a30                GPIOPinTypePWM
 .text.GPIOPinTypeQEI
                0x0000000000006a4c       0x1c /mnt/storage/project/2kwMotorController/firmware/Tivaware/driverlib/gcc/libdriver.a(gpio.o)
                0x0000000000006a4c                GPIOPinTypeQEI
 .text.GPIOPinTypeSSI
                0x0000000000006a68       0x1c /mnt/storage/project/2kwMotorController/firmware/Tivaware/driverlib/gcc/libdriver.a(gpio.o)
                0x0000000000006a68                GPIOPinTypeSSI
 .text.GPIOPinTypeTimer
                0x0000000000006a84       0x1c /mnt/storage/project/2kwMotorController/firmware/Tivaware/driverlib/gcc/libdriver.a(gpio.o)
                0x0000000000006a84                GPIOPinTypeTimer
 .text.GPIOPinTypeTrace
                0x0000000000006aa0       0x1c /mnt/storage/project/2kwMotorController/firmware/Tivaware/driverlib/gcc/libdriver.a(gpio.o)
                0x0000000000006aa0                GPIOPinTypeTrace
 .text.GPIOPinTypeUART
                0x0000000000006abc       0x1c /mnt/storage/project/2kwMotorController/firmware/Tivaware/driverlib/gcc/libdriver.a(gpio.o)
                0x0000000000006abc                GPIOPinTypeUART
 .text.GPIOPinTypeUSBAnalog
                0x0000000000006ad8       0x1c /mnt/storage/project/2kwMotorController/firmware/Tivaware/driverlib/gcc/libdriver.a(gpio.o)
                0x0000000000006ad8                GPIOPinTypeUSBAnalog
 .text.GPIOPinTypeUSBDigital
                0x0000000000006af4       0x1c /mnt/storage/project/2kwMotorController/firmware/Tivaware/driverlib/gcc/libdriver.a(gpio.o)
                0x0000000000006af4                GPIOPinTypeUSBDigital
 .text.GPIOPinTypeWakeHigh
                0x0000000000006b10       0x1e /mnt/storage/project/2kwMotorController/firmware/Tivaware/driverlib/gcc/libdriver.a(gpio.o)
                0x0000000000006b10                GPIOPinTypeWakeHigh
 .text.GPIOPinTypeWakeLow
                0x0000000000006b2e       0x1e /mnt/storage/project/2kwMotorController/firmware/Tivaware/driverlib/gcc/libdriver.a(gpio.o)
                0x0000000000006b2e                GPIOPinTypeWakeLow
 .text.GPIOPinWakeStatus
                0x0000000000006b4c        0x6 /mnt/storage/project/2kwMotorController/firmware/Tivaware/driverlib/gcc/libdriver.a(gpio.o)
                0x0000000000006b4c                GPIOPinWakeStatus
 *fill*         0x0000000000006b52        0x2 
 .text.GPIOPinConfigure
                0x0000000000006b54       0x4c /mnt/storage/project/2kwMotorController/firmware/Tivaware/driverlib/gcc/libdriver.a(gpio.o)
                0x0000000000006b54                GPIOPinConfigure
 .text.GPIODMATriggerEnable
                0x0000000000006ba0        0xc /mnt/storage/project/2kwMotorController/firmware/Tivaware/driverlib/gcc/libdriver.a(gpio.o)
                0x0000000000006ba0                GPIODMATriggerEnable
 .text.GPIODMATriggerDisable
                0x0000000000006bac        0xe /mnt/storage/project/2kwMotorController/firmware/Tivaware/driverlib/gcc/libdriver.a(gpio.o)
                0x0000000000006bac                GPIODMATriggerDisable
 .text.GPIOADCTriggerEnable
                0x0000000000006bba        0xc /mnt/storage/project/2kwMotorController/firmware/Tivaware/driverlib/gcc/libdriver.a(gpio.o)
                0x0000000000006bba                GPIOADCTriggerEnable
 .text.GPIOADCTriggerDisable
                0x0000000000006bc6        0xe /mnt/storage/project/2kwMotorController/firmware/Tivaware/driverlib/gcc/libdriver.a(gpio.o)
                0x0000000000006bc6                GPIOADCTriggerDisable
 .text._IntDefaultHandler
                0x0000000000006bd4        0x2 /mnt/storage/project/2kwMotorController/firmware/Tivaware/driverlib/gcc/libdriver.a(interrupt.o)
 .text.IntMasterEnable
                0x0000000000006bd6        0xe /mnt/storage/project/2kwMotorController/firmware/Tivaware/driverlib/gcc/libdriver.a(interrupt.o)
                0x0000000000006bd6                IntMasterEnable
 .text.IntMasterDisable
                0x0000000000006be4        0xe /mnt/storage/project/2kwMotorController/firmware/Tivaware/driverlib/gcc/libdriver.a(interrupt.o)
                0x0000000000006be4                IntMasterDisable
 *fill*         0x0000000000006bf2        0x2 
 .text.IntRegister
                0x0000000000006bf4       0x34 /mnt/storage/project/2kwMotorController/firmware/Tivaware/driverlib/gcc/libdriver.a(interrupt.o)
                0x0000000000006bf4                IntRegister
 .text.IntUnregister
                0x0000000000006c28       0x14 /mnt/storage/project/2kwMotorController/firmware/Tivaware/driverlib/gcc/libdriver.a(interrupt.o)
                0x0000000000006c28                IntUnregister
 .text.IntPriorityGroupingSet
                0x0000000000006c3c       0x1c /mnt/storage/project/2kwMotorController/firmware/Tivaware/driverlib/gcc/libdriver.a(interrupt.o)
                0x0000000000006c3c                IntPriorityGroupingSet
 .text.IntPriorityGroupingGet
                0x0000000000006c58       0x24 /mnt/storage/project/2kwMotorController/firmware/Tivaware/driverlib/gcc/libdriver.a(interrupt.o)
                0x0000000000006c58                IntPriorityGroupingGet
 .text.IntPrioritySet
                0x0000000000006c7c       0x2c /mnt/storage/project/2kwMotorController/firmware/Tivaware/driverlib/gcc/libdriver.a(interrupt.o)
                0x0000000000006c7c                IntPrioritySet
 .text.IntPriorityGet
                0x0000000000006ca8       0x1c /mnt/storage/project/2kwMotorController/firmware/Tivaware/driverlib/gcc/libdriver.a(interrupt.o)
                0x0000000000006ca8                IntPriorityGet
 .text.IntEnable
                0x0000000000006cc4       0x60 /mnt/storage/project/2kwMotorController/firmware/Tivaware/driverlib/gcc/libdriver.a(interrupt.o)
                0x0000000000006cc4                IntEnable
 .text.IntDisable
                0x0000000000006d24       0x60 /mnt/storage/project/2kwMotorController/firmware/Tivaware/driverlib/gcc/libdriver.a(interrupt.o)
                0x0000000000006d24                IntDisable
 .text.IntIsEnabled
                0x0000000000006d84       0x64 /mnt/storage/project/2kwMotorController/firmware/Tivaware/driverlib/gcc/libdriver.a(interrupt.o)
                0x0000000000006d84                IntIsEnabled
 .text.IntPendSet
                0x0000000000006de8       0x50 /mnt/storage/project/2kwMotorController/firmware/Tivaware/driverlib/gcc/libdriver.a(interrupt.o)
                0x0000000000006de8                IntPendSet
 .text.IntPendClear
                0x0000000000006e38       0x40 /mnt/storage/project/2kwMotorController/firmware/Tivaware/driverlib/gcc/libdriver.a(interrupt.o)
                0x0000000000006e38                IntPendClear
 .text.IntPriorityMaskSet
                0x0000000000006e78        0x4 /mnt/storage/project/2kwMotorController/firmware/Tivaware/driverlib/gcc/libdriver.a(interrupt.o)
                0x0000000000006e78                IntPriorityMaskSet
 .text.IntPriorityMaskGet
                0x0000000000006e7c        0x4 /mnt/storage/project/2kwMotorController/firmware/Tivaware/driverlib/gcc/libdriver.a(interrupt.o)
                0x0000000000006e7c                IntPriorityMaskGet
 .text.IntTrigger
                0x0000000000006e80        0xc /mnt/storage/project/2kwMotorController/firmware/Tivaware/driverlib/gcc/libdriver.a(interrupt.o)
                0x0000000000006e80                IntTrigger
 .text._PWMGenIntNumberGet
                0x0000000000006e8c      0x104 /mnt/storage/project/2kwMotorController/firmware/Tivaware/driverlib/gcc/libdriver.a(pwm.o)
 .text._PWMFaultIntNumberGet
                0x0000000000006f90       0x48 /mnt/storage/project/2kwMotorController/firmware/Tivaware/driverlib/gcc/libdriver.a(pwm.o)
 .text.PWMGenConfigure
                0x0000000000006fd8       0x30 /mnt/storage/project/2kwMotorController/firmware/Tivaware/driverlib/gcc/libdriver.a(pwm.o)
                0x0000000000006fd8                PWMGenConfigure
 .text.PWMGenPeriodSet
                0x0000000000007008       0x12 /mnt/storage/project/2kwMotorController/firmware/Tivaware/driverlib/gcc/libdriver.a(pwm.o)
                0x0000000000007008                PWMGenPeriodSet
 .text.PWMGenPeriodGet
                0x000000000000701a       0x12 /mnt/storage/project/2kwMotorController/firmware/Tivaware/driverlib/gcc/libdriver.a(pwm.o)
                0x000000000000701a                PWMGenPeriodGet
 .text.PWMGenEnable
                0x000000000000702c        0xa /mnt/storage/project/2kwMotorController/firmware/Tivaware/driverlib/gcc/libdriver.a(pwm.o)
                0x000000000000702c                PWMGenEnable
 .text.PWMGenDisable
                0x0000000000007036        0xa /mnt/storage/project/2kwMotorController/firmware/Tivaware/driverlib/gcc/libdriver.a(pwm.o)
                0x0000000000007036                PWMGenDisable
 .text.PWMPulseWidthSet
                0x0000000000007040       0x1e /mnt/storage/project/2kwMotorController/firmware/Tivaware/driverlib/gcc/libdriver.a(pwm.o)
                0x0000000000007040                PWMPulseWidthSet
 .text.PWMPulseWidthGet
                0x000000000000705e       0x20 /mnt/storage/project/2kwMotorController/firmware/Tivaware/driverlib/gcc/libdriver.a(pwm.o)
                0x000000000000705e                PWMPulseWidthGet
 .text.PWMDeadBandEnable
                0x000000000000707e       0x10 /mnt/storage/project/2kwMotorController/firmware/Tivaware/driverlib/gcc/libdriver.a(pwm.o)
                0x000000000000707e                PWMDeadBandEnable
 .text.PWMDeadBandDisable
                0x000000000000708e        0xc /mnt/storage/project/2kwMotorController/firmware/Tivaware/driverlib/gcc/libdriver.a(pwm.o)
                0x000000000000708e                PWMDeadBandDisable
 .text.PWMSyncUpdate
                0x000000000000709a        0x4 /mnt/storage/project/2kwMotorController/firmware/Tivaware/driverlib/gcc/libdriver.a(pwm.o)
                0x000000000000709a                PWMSyncUpdate
 .text.PWMSyncTimeBase
                0x000000000000709e        0x4 /mnt/storage/project/2kwMotorController/firmware/Tivaware/driverlib/gcc/libdriver.a(pwm.o)
                0x000000000000709e                PWMSyncTimeBase
 .text.PWMOutputState
                0x00000000000070a2       0x10 /mnt/storage/project/2kwMotorController/firmware/Tivaware/driverlib/gcc/libdriver.a(pwm.o)
                0x00000000000070a2                PWMOutputState
 .text.PWMOutputInvert
                0x00000000000070b2       0x10 /mnt/storage/project/2kwMotorController/firmware/Tivaware/driverlib/gcc/libdriver.a(pwm.o)
                0x00000000000070b2                PWMOutputInvert
 .text.PWMOutputFaultLevel
                0x00000000000070c2       0x10 /mnt/storage/project/2kwMotorController/firmware/Tivaware/driverlib/gcc/libdriver.a(pwm.o)
                0x00000000000070c2                PWMOutputFaultLevel
 .text.PWMOutputFault
                0x00000000000070d2       0x10 /mnt/storage/project/2kwMotorController/firmware/Tivaware/driverlib/gcc/libdriver.a(pwm.o)
                0x00000000000070d2                PWMOutputFault
 .text.PWMGenIntRegister
                0x00000000000070e2       0x1a /mnt/storage/project/2kwMotorController/firmware/Tivaware/driverlib/gcc/libdriver.a(pwm.o)
                0x00000000000070e2                PWMGenIntRegister
 .text.PWMGenIntUnregister
                0x00000000000070fc       0x16 /mnt/storage/project/2kwMotorController/firmware/Tivaware/driverlib/gcc/libdriver.a(pwm.o)
                0x00000000000070fc                PWMGenIntUnregister
 .text.PWMFaultIntRegister
                0x0000000000007112       0x1a /mnt/storage/project/2kwMotorController/firmware/Tivaware/driverlib/gcc/libdriver.a(pwm.o)
                0x0000000000007112                PWMFaultIntRegister
 .text.PWMFaultIntUnregister
                0x000000000000712c       0x16 /mnt/storage/project/2kwMotorController/firmware/Tivaware/driverlib/gcc/libdriver.a(pwm.o)
                0x000000000000712c                PWMFaultIntUnregister
 .text.PWMGenIntTrigEnable
                0x0000000000007142        0xa /mnt/storage/project/2kwMotorController/firmware/Tivaware/driverlib/gcc/libdriver.a(pwm.o)
                0x0000000000007142                PWMGenIntTrigEnable
 .text.PWMGenIntTrigDisable
                0x000000000000714c        0xc /mnt/storage/project/2kwMotorController/firmware/Tivaware/driverlib/gcc/libdriver.a(pwm.o)
                0x000000000000714c                PWMGenIntTrigDisable
 .text.PWMGenIntStatus
                0x0000000000007158        0xc /mnt/storage/project/2kwMotorController/firmware/Tivaware/driverlib/gcc/libdriver.a(pwm.o)
                0x0000000000007158                PWMGenIntStatus
 .text.PWMGenIntClear
                0x0000000000007164        0x6 /mnt/storage/project/2kwMotorController/firmware/Tivaware/driverlib/gcc/libdriver.a(pwm.o)
                0x0000000000007164                PWMGenIntClear
 .text.PWMIntEnable
                0x000000000000716a        0x8 /mnt/storage/project/2kwMotorController/firmware/Tivaware/driverlib/gcc/libdriver.a(pwm.o)
                0x000000000000716a                PWMIntEnable
 .text.PWMIntDisable
                0x0000000000007172        0xa /mnt/storage/project/2kwMotorController/firmware/Tivaware/driverlib/gcc/libdriver.a(pwm.o)
                0x0000000000007172                PWMIntDisable
 .text.PWMFaultIntClear
                0x000000000000717c        0x8 /mnt/storage/project/2kwMotorController/firmware/Tivaware/driverlib/gcc/libdriver.a(pwm.o)
                0x000000000000717c                PWMFaultIntClear
 .text.PWMIntStatus
                0x0000000000007184        0xa /mnt/storage/project/2kwMotorController/firmware/Tivaware/driverlib/gcc/libdriver.a(pwm.o)
                0x0000000000007184                PWMIntStatus
 .text.PWMFaultIntClearExt
                0x000000000000718e        0x4 /mnt/storage/project/2kwMotorController/firmware/Tivaware/driverlib/gcc/libdriver.a(pwm.o)
                0x000000000000718e                PWMFaultIntClearExt
 .text.PWMGenFaultConfigure
                0x0000000000007192       0x18 /mnt/storage/project/2kwMotorController/firmware/Tivaware/driverlib/gcc/libdriver.a(pwm.o)
                0x0000000000007192                PWMGenFaultConfigure
 .text.PWMGenFaultTriggerSet
                0x00000000000071aa        0xc /mnt/storage/project/2kwMotorController/firmware/Tivaware/driverlib/gcc/libdriver.a(pwm.o)
                0x00000000000071aa                PWMGenFaultTriggerSet
 .text.PWMGenFaultTriggerGet
                0x00000000000071b6        0xc /mnt/storage/project/2kwMotorController/firmware/Tivaware/driverlib/gcc/libdriver.a(pwm.o)
                0x00000000000071b6                PWMGenFaultTriggerGet
 .text.PWMGenFaultStatus
                0x00000000000071c2       0x18 /mnt/storage/project/2kwMotorController/firmware/Tivaware/driverlib/gcc/libdriver.a(pwm.o)
                0x00000000000071c2                PWMGenFaultStatus
 .text.PWMGenFaultClear
                0x00000000000071da       0x18 /mnt/storage/project/2kwMotorController/firmware/Tivaware/driverlib/gcc/libdriver.a(pwm.o)
                0x00000000000071da                PWMGenFaultClear
 .text.PWMClockSet
                0x00000000000071f2       0x14 /mnt/storage/project/2kwMotorController/firmware/Tivaware/driverlib/gcc/libdriver.a(pwm.o)
                0x00000000000071f2                PWMClockSet
 .text.PWMClockGet
                0x0000000000007206       0x1a /mnt/storage/project/2kwMotorController/firmware/Tivaware/driverlib/gcc/libdriver.a(pwm.o)
                0x0000000000007206                PWMClockGet
 .text.PWMOutputUpdateMode
                0x0000000000007220       0x30 /mnt/storage/project/2kwMotorController/firmware/Tivaware/driverlib/gcc/libdriver.a(pwm.o)
                0x0000000000007220                PWMOutputUpdateMode
 .text._QEIIntNumberGet
                0x0000000000007250       0x48 /mnt/storage/project/2kwMotorController/firmware/Tivaware/driverlib/gcc/libdriver.a(qei.o)
 .text.QEIEnable
                0x0000000000007298        0xa /mnt/storage/project/2kwMotorController/firmware/Tivaware/driverlib/gcc/libdriver.a(qei.o)
                0x0000000000007298                QEIEnable
 .text.QEIDisable
                0x00000000000072a2        0xa /mnt/storage/project/2kwMotorController/firmware/Tivaware/driverlib/gcc/libdriver.a(qei.o)
                0x00000000000072a2                QEIDisable
 .text.QEIConfigure
                0x00000000000072ac        0xe /mnt/storage/project/2kwMotorController/firmware/Tivaware/driverlib/gcc/libdriver.a(qei.o)
                0x00000000000072ac                QEIConfigure
 .text.QEIPositionGet
                0x00000000000072ba        0x4 /mnt/storage/project/2kwMotorController/firmware/Tivaware/driverlib/gcc/libdriver.a(qei.o)
                0x00000000000072ba                QEIPositionGet
 .text.QEIPositionSet
                0x00000000000072be        0x4 /mnt/storage/project/2kwMotorController/firmware/Tivaware/driverlib/gcc/libdriver.a(qei.o)
                0x00000000000072be                QEIPositionSet
 .text.QEIDirectionGet
                0x00000000000072c2       0x10 /mnt/storage/project/2kwMotorController/firmware/Tivaware/driverlib/gcc/libdriver.a(qei.o)
                0x00000000000072c2                QEIDirectionGet
 .text.QEIErrorGet
                0x00000000000072d2        0x8 /mnt/storage/project/2kwMotorController/firmware/Tivaware/driverlib/gcc/libdriver.a(qei.o)
                0x00000000000072d2                QEIErrorGet
 .text.QEIFilterEnable
                0x00000000000072da        0xa /mnt/storage/project/2kwMotorController/firmware/Tivaware/driverlib/gcc/libdriver.a(qei.o)
                0x00000000000072da                QEIFilterEnable
 .text.QEIFilterDisable
                0x00000000000072e4        0xa /mnt/storage/project/2kwMotorController/firmware/Tivaware/driverlib/gcc/libdriver.a(qei.o)
                0x00000000000072e4                QEIFilterDisable
 .text.QEIFilterConfigure
                0x00000000000072ee        0xc /mnt/storage/project/2kwMotorController/firmware/Tivaware/driverlib/gcc/libdriver.a(qei.o)
                0x00000000000072ee                QEIFilterConfigure
 .text.QEIVelocityEnable
                0x00000000000072fa        0xa /mnt/storage/project/2kwMotorController/firmware/Tivaware/driverlib/gcc/libdriver.a(qei.o)
                0x00000000000072fa                QEIVelocityEnable
 .text.QEIVelocityDisable
                0x0000000000007304        0xa /mnt/storage/project/2kwMotorController/firmware/Tivaware/driverlib/gcc/libdriver.a(qei.o)
                0x0000000000007304                QEIVelocityDisable
 .text.QEIVelocityConfigure
                0x000000000000730e       0x10 /mnt/storage/project/2kwMotorController/firmware/Tivaware/driverlib/gcc/libdriver.a(qei.o)
                0x000000000000730e                QEIVelocityConfigure
 .text.QEIVelocityGet
                0x000000000000731e        0x4 /mnt/storage/project/2kwMotorController/firmware/Tivaware/driverlib/gcc/libdriver.a(qei.o)
                0x000000000000731e                QEIVelocityGet
 .text.QEIIntRegister
                0x0000000000007322       0x1a /mnt/storage/project/2kwMotorController/firmware/Tivaware/driverlib/gcc/libdriver.a(qei.o)
                0x0000000000007322                QEIIntRegister
 .text.QEIIntUnregister
                0x000000000000733c       0x16 /mnt/storage/project/2kwMotorController/firmware/Tivaware/driverlib/gcc/libdriver.a(qei.o)
                0x000000000000733c                QEIIntUnregister
 .text.QEIIntEnable
                0x0000000000007352        0x8 /mnt/storage/project/2kwMotorController/firmware/Tivaware/driverlib/gcc/libdriver.a(qei.o)
                0x0000000000007352                QEIIntEnable
 .text.QEIIntDisable
                0x000000000000735a        0xa /mnt/storage/project/2kwMotorController/firmware/Tivaware/driverlib/gcc/libdriver.a(qei.o)
                0x000000000000735a                QEIIntDisable
 .text.QEIIntStatus
                0x0000000000007364        0xa /mnt/storage/project/2kwMotorController/firmware/Tivaware/driverlib/gcc/libdriver.a(qei.o)
                0x0000000000007364                QEIIntStatus
 .text.QEIIntClear
                0x000000000000736e        0x4 /mnt/storage/project/2kwMotorController/firmware/Tivaware/driverlib/gcc/libdriver.a(qei.o)
                0x000000000000736e                QEIIntClear
 *fill*         0x0000000000007372        0x2 
 .text._SysCtlMemTimingGet
                0x0000000000007374       0x24 /mnt/storage/project/2kwMotorController/firmware/Tivaware/driverlib/gcc/libdriver.a(sysctl.o)
 .text.SysCtlSRAMSizeGet
                0x0000000000007398       0x10 /mnt/storage/project/2kwMotorController/firmware/Tivaware/driverlib/gcc/libdriver.a(sysctl.o)
                0x0000000000007398                SysCtlSRAMSizeGet
 .text.SysCtlFlashSizeGet
                0x00000000000073a8       0x3c /mnt/storage/project/2kwMotorController/firmware/Tivaware/driverlib/gcc/libdriver.a(sysctl.o)
                0x00000000000073a8                SysCtlFlashSizeGet
 .text.SysCtlFlashSectorSizeGet
                0x00000000000073e4       0x38 /mnt/storage/project/2kwMotorController/firmware/Tivaware/driverlib/gcc/libdriver.a(sysctl.o)
                0x00000000000073e4                SysCtlFlashSectorSizeGet
 .text.SysCtlPeripheralPresent
                0x000000000000741c       0x26 /mnt/storage/project/2kwMotorController/firmware/Tivaware/driverlib/gcc/libdriver.a(sysctl.o)
                0x000000000000741c                SysCtlPeripheralPresent
 .text.SysCtlPeripheralReady
                0x0000000000007442       0x26 /mnt/storage/project/2kwMotorController/firmware/Tivaware/driverlib/gcc/libdriver.a(sysctl.o)
                0x0000000000007442                SysCtlPeripheralReady
 .text.SysCtlPeripheralPowerOn
                0x0000000000007468       0x22 /mnt/storage/project/2kwMotorController/firmware/Tivaware/driverlib/gcc/libdriver.a(sysctl.o)
                0x0000000000007468                SysCtlPeripheralPowerOn
 .text.SysCtlPeripheralPowerOff
                0x000000000000748a       0x22 /mnt/storage/project/2kwMotorController/firmware/Tivaware/driverlib/gcc/libdriver.a(sysctl.o)
                0x000000000000748a                SysCtlPeripheralPowerOff
 .text.SysCtlPeripheralReset
                0x00000000000074ac       0x3a /mnt/storage/project/2kwMotorController/firmware/Tivaware/driverlib/gcc/libdriver.a(sysctl.o)
                0x00000000000074ac                SysCtlPeripheralReset
 .text.SysCtlPeripheralEnable
                0x00000000000074e6       0x22 /mnt/storage/project/2kwMotorController/firmware/Tivaware/driverlib/gcc/libdriver.a(sysctl.o)
                0x00000000000074e6                SysCtlPeripheralEnable
 .text.SysCtlPeripheralDisable
                0x0000000000007508       0x22 /mnt/storage/project/2kwMotorController/firmware/Tivaware/driverlib/gcc/libdriver.a(sysctl.o)
                0x0000000000007508                SysCtlPeripheralDisable
 .text.SysCtlPeripheralSleepEnable
                0x000000000000752a       0x22 /mnt/storage/project/2kwMotorController/firmware/Tivaware/driverlib/gcc/libdriver.a(sysctl.o)
                0x000000000000752a                SysCtlPeripheralSleepEnable
 .text.SysCtlPeripheralSleepDisable
                0x000000000000754c       0x22 /mnt/storage/project/2kwMotorController/firmware/Tivaware/driverlib/gcc/libdriver.a(sysctl.o)
                0x000000000000754c                SysCtlPeripheralSleepDisable
 .text.SysCtlPeripheralDeepSleepEnable
                0x000000000000756e       0x22 /mnt/storage/project/2kwMotorController/firmware/Tivaware/driverlib/gcc/libdriver.a(sysctl.o)
                0x000000000000756e                SysCtlPeripheralDeepSleepEnable
 .text.SysCtlPeripheralDeepSleepDisable
                0x0000000000007590       0x22 /mnt/storage/project/2kwMotorController/firmware/Tivaware/driverlib/gcc/libdriver.a(sysctl.o)
                0x0000000000007590                SysCtlPeripheralDeepSleepDisable
 *fill*         0x00000000000075b2        0x2 
 .text.SysCtlPeripheralClockGating
                0x00000000000075b4       0x48 /mnt/storage/project/2kwMotorController/firmware/Tivaware/driverlib/gcc/libdriver.a(sysctl.o)
                0x00000000000075b4                SysCtlPeripheralClockGating
 .text.SysCtlIntRegister
                0x00000000000075fc       0x14 /mnt/storage/project/2kwMotorController/firmware/Tivaware/driverlib/gcc/libdriver.a(sysctl.o)
                0x00000000000075fc                SysCtlIntRegister
 .text.SysCtlIntUnregister
                0x0000000000007610       0x12 /mnt/storage/project/2kwMotorController/firmware/Tivaware/driverlib/gcc/libdriver.a(sysctl.o)
                0x0000000000007610                SysCtlIntUnregister
 *fill*         0x0000000000007622        0x2 
 .text.SysCtlIntEnable
                0x0000000000007624       0x10 /mnt/storage/project/2kwMotorController/firmware/Tivaware/driverlib/gcc/libdriver.a(sysctl.o)
                0x0000000000007624                SysCtlIntEnable
 .text.SysCtlIntDisable
                0x0000000000007634       0x10 /mnt/storage/project/2kwMotorController/firmware/Tivaware/driverlib/gcc/libdriver.a(sysctl.o)
                0x0000000000007634                SysCtlIntDisable
 .text.SysCtlIntClear
                0x0000000000007644        0xc /mnt/storage/project/2kwMotorController/firmware/Tivaware/driverlib/gcc/libdriver.a(sysctl.o)
                0x0000000000007644                SysCtlIntClear
 .text.SysCtlIntStatus
                0x0000000000007650       0x14 /mnt/storage/project/2kwMotorController/firmware/Tivaware/driverlib/gcc/libdriver.a(sysctl.o)
                0x0000000000007650                SysCtlIntStatus
 .text.SysCtlLDOSleepSet
                0x0000000000007664        0xc /mnt/storage/project/2kwMotorController/firmware/Tivaware/driverlib/gcc/libdriver.a(sysctl.o)
                0x0000000000007664                SysCtlLDOSleepSet
 .text.SysCtlLDOSleepGet
                0x0000000000007670        0xc /mnt/storage/project/2kwMotorController/firmware/Tivaware/driverlib/gcc/libdriver.a(sysctl.o)
                0x0000000000007670                SysCtlLDOSleepGet
 .text.SysCtlLDODeepSleepSet
                0x000000000000767c        0xc /mnt/storage/project/2kwMotorController/firmware/Tivaware/driverlib/gcc/libdriver.a(sysctl.o)
                0x000000000000767c                SysCtlLDODeepSleepSet
 .text.SysCtlLDODeepSleepGet
                0x0000000000007688        0xc /mnt/storage/project/2kwMotorController/firmware/Tivaware/driverlib/gcc/libdriver.a(sysctl.o)
                0x0000000000007688                SysCtlLDODeepSleepGet
 .text.SysCtlSleepPowerSet
                0x0000000000007694        0xc /mnt/storage/project/2kwMotorController/firmware/Tivaware/driverlib/gcc/libdriver.a(sysctl.o)
                0x0000000000007694                SysCtlSleepPowerSet
 .text.SysCtlDeepSleepPowerSet
                0x00000000000076a0        0xc /mnt/storage/project/2kwMotorController/firmware/Tivaware/driverlib/gcc/libdriver.a(sysctl.o)
                0x00000000000076a0                SysCtlDeepSleepPowerSet
 .text.SysCtlReset
                0x00000000000076ac       0x10 /mnt/storage/project/2kwMotorController/firmware/Tivaware/driverlib/gcc/libdriver.a(sysctl.o)
                0x00000000000076ac                SysCtlReset
 .text.SysCtlSleep
                0x00000000000076bc        0x4 /mnt/storage/project/2kwMotorController/firmware/Tivaware/driverlib/gcc/libdriver.a(sysctl.o)
                0x00000000000076bc                SysCtlSleep
 .text.SysCtlDeepSleep
                0x00000000000076c0       0x20 /mnt/storage/project/2kwMotorController/firmware/Tivaware/driverlib/gcc/libdriver.a(sysctl.o)
                0x00000000000076c0                SysCtlDeepSleep
 .text.SysCtlResetCauseGet
                0x00000000000076e0        0xc /mnt/storage/project/2kwMotorController/firmware/Tivaware/driverlib/gcc/libdriver.a(sysctl.o)
                0x00000000000076e0                SysCtlResetCauseGet
 .text.SysCtlResetCauseClear
                0x00000000000076ec       0x10 /mnt/storage/project/2kwMotorController/firmware/Tivaware/driverlib/gcc/libdriver.a(sysctl.o)
                0x00000000000076ec                SysCtlResetCauseClear
 .text.SysCtlDelay
                0x00000000000076fc        0x8 /mnt/storage/project/2kwMotorController/firmware/Tivaware/driverlib/gcc/libdriver.a(sysctl.o)
                0x00000000000076fc                SysCtlDelay
 .text.SysCtlMOSCConfigSet
                0x0000000000007704        0xc /mnt/storage/project/2kwMotorController/firmware/Tivaware/driverlib/gcc/libdriver.a(sysctl.o)
                0x0000000000007704                SysCtlMOSCConfigSet
 .text.SysCtlPIOSCCalibrate
                0x0000000000007710       0x48 /mnt/storage/project/2kwMotorController/firmware/Tivaware/driverlib/gcc/libdriver.a(sysctl.o)
                0x0000000000007710                SysCtlPIOSCCalibrate
 .text.SysCtlResetBehaviorSet
                0x0000000000007758        0xc /mnt/storage/project/2kwMotorController/firmware/Tivaware/driverlib/gcc/libdriver.a(sysctl.o)
                0x0000000000007758                SysCtlResetBehaviorSet
 .text.SysCtlResetBehaviorGet
                0x0000000000007764        0xc /mnt/storage/project/2kwMotorController/firmware/Tivaware/driverlib/gcc/libdriver.a(sysctl.o)
                0x0000000000007764                SysCtlResetBehaviorGet
 .text.SysCtlClockFreqSet
                0x0000000000007770      0x248 /mnt/storage/project/2kwMotorController/firmware/Tivaware/driverlib/gcc/libdriver.a(sysctl.o)
                0x0000000000007770                SysCtlClockFreqSet
 .text.SysCtlClockSet
                0x00000000000079b8      0x11c /mnt/storage/project/2kwMotorController/firmware/Tivaware/driverlib/gcc/libdriver.a(sysctl.o)
                0x00000000000079b8                SysCtlClockSet
 .text.SysCtlClockGet
                0x0000000000007ad4      0x12c /mnt/storage/project/2kwMotorController/firmware/Tivaware/driverlib/gcc/libdriver.a(sysctl.o)
                0x0000000000007ad4                SysCtlClockGet
 .text.SysCtlDeepSleepClockSet
                0x0000000000007c00        0xc /mnt/storage/project/2kwMotorController/firmware/Tivaware/driverlib/gcc/libdriver.a(sysctl.o)
                0x0000000000007c00                SysCtlDeepSleepClockSet
 .text.SysCtlDeepSleepClockConfigSet
                0x0000000000007c0c       0x60 /mnt/storage/project/2kwMotorController/firmware/Tivaware/driverlib/gcc/libdriver.a(sysctl.o)
                0x0000000000007c0c                SysCtlDeepSleepClockConfigSet
 .text.SysCtlPWMClockSet
                0x0000000000007c6c       0x14 /mnt/storage/project/2kwMotorController/firmware/Tivaware/driverlib/gcc/libdriver.a(sysctl.o)
                0x0000000000007c6c                SysCtlPWMClockSet
 .text.SysCtlPWMClockGet
                0x0000000000007c80       0x18 /mnt/storage/project/2kwMotorController/firmware/Tivaware/driverlib/gcc/libdriver.a(sysctl.o)
                0x0000000000007c80                SysCtlPWMClockGet
 .text.SysCtlGPIOAHBEnable
                0x0000000000007c98       0x18 /mnt/storage/project/2kwMotorController/firmware/Tivaware/driverlib/gcc/libdriver.a(sysctl.o)
                0x0000000000007c98                SysCtlGPIOAHBEnable
 .text.SysCtlGPIOAHBDisable
                0x0000000000007cb0       0x1c /mnt/storage/project/2kwMotorController/firmware/Tivaware/driverlib/gcc/libdriver.a(sysctl.o)
                0x0000000000007cb0                SysCtlGPIOAHBDisable
 .text.SysCtlUSBPLLEnable
                0x0000000000007ccc       0x10 /mnt/storage/project/2kwMotorController/firmware/Tivaware/driverlib/gcc/libdriver.a(sysctl.o)
                0x0000000000007ccc                SysCtlUSBPLLEnable
 .text.SysCtlUSBPLLDisable
                0x0000000000007cdc       0x10 /mnt/storage/project/2kwMotorController/firmware/Tivaware/driverlib/gcc/libdriver.a(sysctl.o)
                0x0000000000007cdc                SysCtlUSBPLLDisable
 .text.SysCtlVoltageEventConfig
                0x0000000000007cec        0xc /mnt/storage/project/2kwMotorController/firmware/Tivaware/driverlib/gcc/libdriver.a(sysctl.o)
                0x0000000000007cec                SysCtlVoltageEventConfig
 .text.SysCtlVoltageEventStatus
                0x0000000000007cf8        0xc /mnt/storage/project/2kwMotorController/firmware/Tivaware/driverlib/gcc/libdriver.a(sysctl.o)
                0x0000000000007cf8                SysCtlVoltageEventStatus
 .text.SysCtlVoltageEventClear
                0x0000000000007d04       0x10 /mnt/storage/project/2kwMotorController/firmware/Tivaware/driverlib/gcc/libdriver.a(sysctl.o)
                0x0000000000007d04                SysCtlVoltageEventClear
 .text.SysCtlVCOGet
                0x0000000000007d14       0x78 /mnt/storage/project/2kwMotorController/firmware/Tivaware/driverlib/gcc/libdriver.a(sysctl.o)
                0x0000000000007d14                SysCtlVCOGet
 .text.SysCtlNMIStatus
                0x0000000000007d8c        0xc /mnt/storage/project/2kwMotorController/firmware/Tivaware/driverlib/gcc/libdriver.a(sysctl.o)
                0x0000000000007d8c                SysCtlNMIStatus
 .text.SysCtlNMIClear
                0x0000000000007d98       0x10 /mnt/storage/project/2kwMotorController/firmware/Tivaware/driverlib/gcc/libdriver.a(sysctl.o)
                0x0000000000007d98                SysCtlNMIClear
 .text.SysCtlClockOutConfig
                0x0000000000007da8       0x10 /mnt/storage/project/2kwMotorController/firmware/Tivaware/driverlib/gcc/libdriver.a(sysctl.o)
                0x0000000000007da8                SysCtlClockOutConfig
 .text.SysCtlAltClkConfig
                0x0000000000007db8        0xc /mnt/storage/project/2kwMotorController/firmware/Tivaware/driverlib/gcc/libdriver.a(sysctl.o)
                0x0000000000007db8                SysCtlAltClkConfig
 .text._TimerIntNumberGet
                0x0000000000007dc4       0x50 /mnt/storage/project/2kwMotorController/firmware/Tivaware/driverlib/gcc/libdriver.a(timer.o)
 .text.TimerEnable
                0x0000000000007e14       0x10 /mnt/storage/project/2kwMotorController/firmware/Tivaware/driverlib/gcc/libdriver.a(timer.o)
                0x0000000000007e14                TimerEnable
 .text.TimerDisable
                0x0000000000007e24       0x10 /mnt/storage/project/2kwMotorController/firmware/Tivaware/driverlib/gcc/libdriver.a(timer.o)
                0x0000000000007e24                TimerDisable
 .text.TimerConfigure
                0x0000000000007e34       0x58 /mnt/storage/project/2kwMotorController/firmware/Tivaware/driverlib/gcc/libdriver.a(timer.o)
                0x0000000000007e34                TimerConfigure
 .text.TimerControlLevel
                0x0000000000007e8c       0x1e /mnt/storage/project/2kwMotorController/firmware/Tivaware/driverlib/gcc/libdriver.a(timer.o)
                0x0000000000007e8c                TimerControlLevel
 *fill*         0x0000000000007eaa        0x2 
 .text.TimerControlTrigger
                0x0000000000007eac       0x54 /mnt/storage/project/2kwMotorController/firmware/Tivaware/driverlib/gcc/libdriver.a(timer.o)
                0x0000000000007eac                TimerControlTrigger
 .text.TimerControlEvent
                0x0000000000007f00       0x14 /mnt/storage/project/2kwMotorController/firmware/Tivaware/driverlib/gcc/libdriver.a(timer.o)
                0x0000000000007f00                TimerControlEvent
 .text.TimerControlStall
                0x0000000000007f14       0x1e /mnt/storage/project/2kwMotorController/firmware/Tivaware/driverlib/gcc/libdriver.a(timer.o)
                0x0000000000007f14                TimerControlStall
 .text.TimerControlWaitOnTrigger
                0x0000000000007f32       0x2e /mnt/storage/project/2kwMotorController/firmware/Tivaware/driverlib/gcc/libdriver.a(timer.o)
                0x0000000000007f32                TimerControlWaitOnTrigger
 .text.TimerRTCEnable
                0x0000000000007f60        0xa /mnt/storage/project/2kwMotorController/firmware/Tivaware/driverlib/gcc/libdriver.a(timer.o)
                0x0000000000007f60                TimerRTCEnable
 .text.TimerRTCDisable
                0x0000000000007f6a        0xa /mnt/storage/project/2kwMotorController/firmware/Tivaware/driverlib/gcc/libdriver.a(timer.o)
                0x0000000000007f6a                TimerRTCDisable
 .text.TimerClockSourceSet
                0x0000000000007f74        0x6 /mnt/storage/project/2kwMotorController/firmware/Tivaware/driverlib/gcc/libdriver.a(timer.o)
                0x0000000000007f74                TimerClockSourceSet
 .text.TimerClockSourceGet
                0x0000000000007f7a        0x6 /mnt/storage/project/2kwMotorController/firmware/Tivaware/driverlib/gcc/libdriver.a(timer.o)
                0x0000000000007f7a                TimerClockSourceGet
 .text.TimerPrescaleSet
                0x0000000000007f80       0x12 /mnt/storage/project/2kwMotorController/firmware/Tivaware/driverlib/gcc/libdriver.a(timer.o)
                0x0000000000007f80                TimerPrescaleSet
 .text.TimerPrescaleGet
                0x0000000000007f92        0xa /mnt/storage/project/2kwMotorController/firmware/Tivaware/driverlib/gcc/libdriver.a(timer.o)
                0x0000000000007f92                TimerPrescaleGet
 .text.TimerPrescaleMatchSet
                0x0000000000007f9c       0x12 /mnt/storage/project/2kwMotorController/firmware/Tivaware/driverlib/gcc/libdriver.a(timer.o)
                0x0000000000007f9c                TimerPrescaleMatchSet
 .text.TimerPrescaleMatchGet
                0x0000000000007fae        0xa /mnt/storage/project/2kwMotorController/firmware/Tivaware/driverlib/gcc/libdriver.a(timer.o)
                0x0000000000007fae                TimerPrescaleMatchGet
 .text.TimerLoadSet
                0x0000000000007fb8       0x12 /mnt/storage/project/2kwMotorController/firmware/Tivaware/driverlib/gcc/libdriver.a(timer.o)
                0x0000000000007fb8                TimerLoadSet
 .text.TimerLoadGet
                0x0000000000007fca        0xa /mnt/storage/project/2kwMotorController/firmware/Tivaware/driverlib/gcc/libdriver.a(timer.o)
                0x0000000000007fca                TimerLoadGet
 .text.TimerLoadSet64
                0x0000000000007fd4        0x6 /mnt/storage/project/2kwMotorController/firmware/Tivaware/driverlib/gcc/libdriver.a(timer.o)
                0x0000000000007fd4                TimerLoadSet64
 .text.TimerLoadGet64
                0x0000000000007fda       0x18 /mnt/storage/project/2kwMotorController/firmware/Tivaware/driverlib/gcc/libdriver.a(timer.o)
                0x0000000000007fda                TimerLoadGet64
 .text.TimerValueGet
                0x0000000000007ff2        0xa /mnt/storage/project/2kwMotorController/firmware/Tivaware/driverlib/gcc/libdriver.a(timer.o)
                0x0000000000007ff2                TimerValueGet
 .text.TimerValueGet64
                0x0000000000007ffc       0x18 /mnt/storage/project/2kwMotorController/firmware/Tivaware/driverlib/gcc/libdriver.a(timer.o)
                0x0000000000007ffc                TimerValueGet64
 .text.TimerMatchSet
                0x0000000000008014       0x12 /mnt/storage/project/2kwMotorController/firmware/Tivaware/driverlib/gcc/libdriver.a(timer.o)
                0x0000000000008014                TimerMatchSet
 .text.TimerMatchGet
                0x0000000000008026        0xa /mnt/storage/project/2kwMotorController/firmware/Tivaware/driverlib/gcc/libdriver.a(timer.o)
                0x0000000000008026                TimerMatchGet
 .text.TimerMatchSet64
                0x0000000000008030        0x6 /mnt/storage/project/2kwMotorController/firmware/Tivaware/driverlib/gcc/libdriver.a(timer.o)
                0x0000000000008030                TimerMatchSet64
 .text.TimerMatchGet64
                0x0000000000008036       0x18 /mnt/storage/project/2kwMotorController/firmware/Tivaware/driverlib/gcc/libdriver.a(timer.o)
                0x0000000000008036                TimerMatchGet64
 .text.TimerIntRegister
                0x000000000000804e       0x1a /mnt/storage/project/2kwMotorController/firmware/Tivaware/driverlib/gcc/libdriver.a(timer.o)
                0x000000000000804e                TimerIntRegister
 .text.TimerIntUnregister
                0x0000000000008068       0x16 /mnt/storage/project/2kwMotorController/firmware/Tivaware/driverlib/gcc/libdriver.a(timer.o)
                0x0000000000008068                TimerIntUnregister
 .text.TimerIntEnable
                0x000000000000807e        0x8 /mnt/storage/project/2kwMotorController/firmware/Tivaware/driverlib/gcc/libdriver.a(timer.o)
                0x000000000000807e                TimerIntEnable
 .text.TimerIntDisable
                0x0000000000008086        0xa /mnt/storage/project/2kwMotorController/firmware/Tivaware/driverlib/gcc/libdriver.a(timer.o)
                0x0000000000008086                TimerIntDisable
 .text.TimerIntStatus
                0x0000000000008090        0xa /mnt/storage/project/2kwMotorController/firmware/Tivaware/driverlib/gcc/libdriver.a(timer.o)
                0x0000000000008090                TimerIntStatus
 .text.TimerIntClear
                0x000000000000809a        0x4 /mnt/storage/project/2kwMotorController/firmware/Tivaware/driverlib/gcc/libdriver.a(timer.o)
                0x000000000000809a                TimerIntClear
 .text.TimerSynchronize
                0x000000000000809e        0x4 /mnt/storage/project/2kwMotorController/firmware/Tivaware/driverlib/gcc/libdriver.a(timer.o)
                0x000000000000809e                TimerSynchronize
 .text.TimerADCEventSet
                0x00000000000080a2        0x4 /mnt/storage/project/2kwMotorController/firmware/Tivaware/driverlib/gcc/libdriver.a(timer.o)
                0x00000000000080a2                TimerADCEventSet
 .text.TimerADCEventGet
                0x00000000000080a6        0x4 /mnt/storage/project/2kwMotorController/firmware/Tivaware/driverlib/gcc/libdriver.a(timer.o)
                0x00000000000080a6                TimerADCEventGet
 .text.TimerDMAEventSet
                0x00000000000080aa        0x4 /mnt/storage/project/2kwMotorController/firmware/Tivaware/driverlib/gcc/libdriver.a(timer.o)
                0x00000000000080aa                TimerDMAEventSet
 .text.TimerDMAEventGet
                0x00000000000080ae        0x4 /mnt/storage/project/2kwMotorController/firmware/Tivaware/driverlib/gcc/libdriver.a(timer.o)
                0x00000000000080ae                TimerDMAEventGet
 .text.TimerUpdateMode
                0x00000000000080b2       0x26 /mnt/storage/project/2kwMotorController/firmware/Tivaware/driverlib/gcc/libdriver.a(timer.o)
                0x00000000000080b2                TimerUpdateMode
 .text._UARTIntNumberGet
                0x00000000000080d8       0x44 /mnt/storage/project/2kwMotorController/firmware/Tivaware/driverlib/gcc/libdriver.a(uart.o)
 .text.UARTParityModeSet
                0x000000000000811c        0xc /mnt/storage/project/2kwMotorController/firmware/Tivaware/driverlib/gcc/libdriver.a(uart.o)
                0x000000000000811c                UARTParityModeSet
 .text.UARTParityModeGet
                0x0000000000008128        0x8 /mnt/storage/project/2kwMotorController/firmware/Tivaware/driverlib/gcc/libdriver.a(uart.o)
                0x0000000000008128                UARTParityModeGet
 .text.UARTFIFOLevelSet
                0x0000000000008130        0x6 /mnt/storage/project/2kwMotorController/firmware/Tivaware/driverlib/gcc/libdriver.a(uart.o)
                0x0000000000008130                UARTFIFOLevelSet
 .text.UARTFIFOLevelGet
                0x0000000000008136       0x10 /mnt/storage/project/2kwMotorController/firmware/Tivaware/driverlib/gcc/libdriver.a(uart.o)
                0x0000000000008136                UARTFIFOLevelGet
 .text.UARTConfigGetExpClk
                0x0000000000008146       0x28 /mnt/storage/project/2kwMotorController/firmware/Tivaware/driverlib/gcc/libdriver.a(uart.o)
                0x0000000000008146                UARTConfigGetExpClk
 .text.UARTEnable
                0x000000000000816e       0x16 /mnt/storage/project/2kwMotorController/firmware/Tivaware/driverlib/gcc/libdriver.a(uart.o)
                0x000000000000816e                UARTEnable
 .text.UARTDisable
                0x0000000000008184       0x1c /mnt/storage/project/2kwMotorController/firmware/Tivaware/driverlib/gcc/libdriver.a(uart.o)
                0x0000000000008184                UARTDisable
 .text.UARTConfigSetExpClk
                0x00000000000081a0       0x48 /mnt/storage/project/2kwMotorController/firmware/Tivaware/driverlib/gcc/libdriver.a(uart.o)
                0x00000000000081a0                UARTConfigSetExpClk
 .text.UARTFIFOEnable
                0x00000000000081e8        0xa /mnt/storage/project/2kwMotorController/firmware/Tivaware/driverlib/gcc/libdriver.a(uart.o)
                0x00000000000081e8                UARTFIFOEnable
 .text.UARTFIFODisable
                0x00000000000081f2        0xa /mnt/storage/project/2kwMotorController/firmware/Tivaware/driverlib/gcc/libdriver.a(uart.o)
                0x00000000000081f2                UARTFIFODisable
 .text.UARTEnableSIR
                0x00000000000081fc       0x12 /mnt/storage/project/2kwMotorController/firmware/Tivaware/driverlib/gcc/libdriver.a(uart.o)
                0x00000000000081fc                UARTEnableSIR
 .text.UARTDisableSIR
                0x000000000000820e        0xa /mnt/storage/project/2kwMotorController/firmware/Tivaware/driverlib/gcc/libdriver.a(uart.o)
                0x000000000000820e                UARTDisableSIR
 .text.UARTSmartCardEnable
                0x0000000000008218       0x16 /mnt/storage/project/2kwMotorController/firmware/Tivaware/driverlib/gcc/libdriver.a(uart.o)
                0x0000000000008218                UARTSmartCardEnable
 .text.UARTSmartCardDisable
                0x000000000000822e        0xa /mnt/storage/project/2kwMotorController/firmware/Tivaware/driverlib/gcc/libdriver.a(uart.o)
                0x000000000000822e                UARTSmartCardDisable
 .text.UARTModemControlSet
                0x0000000000008238        0xc /mnt/storage/project/2kwMotorController/firmware/Tivaware/driverlib/gcc/libdriver.a(uart.o)
                0x0000000000008238                UARTModemControlSet
 .text.UARTModemControlClear
                0x0000000000008244        0xe /mnt/storage/project/2kwMotorController/firmware/Tivaware/driverlib/gcc/libdriver.a(uart.o)
                0x0000000000008244                UARTModemControlClear
 .text.UARTModemControlGet
                0x0000000000008252        0x8 /mnt/storage/project/2kwMotorController/firmware/Tivaware/driverlib/gcc/libdriver.a(uart.o)
                0x0000000000008252                UARTModemControlGet
 .text.UARTModemStatusGet
                0x000000000000825a        0xa /mnt/storage/project/2kwMotorController/firmware/Tivaware/driverlib/gcc/libdriver.a(uart.o)
                0x000000000000825a                UARTModemStatusGet
 .text.UARTFlowControlSet
                0x0000000000008264        0xc /mnt/storage/project/2kwMotorController/firmware/Tivaware/driverlib/gcc/libdriver.a(uart.o)
                0x0000000000008264                UARTFlowControlSet
 .text.UARTFlowControlGet
                0x0000000000008270        0x8 /mnt/storage/project/2kwMotorController/firmware/Tivaware/driverlib/gcc/libdriver.a(uart.o)
                0x0000000000008270                UARTFlowControlGet
 .text.UARTTxIntModeSet
                0x0000000000008278        0xc /mnt/storage/project/2kwMotorController/firmware/Tivaware/driverlib/gcc/libdriver.a(uart.o)
                0x0000000000008278                UARTTxIntModeSet
 .text.UARTTxIntModeGet
                0x0000000000008284        0x8 /mnt/storage/project/2kwMotorController/firmware/Tivaware/driverlib/gcc/libdriver.a(uart.o)
                0x0000000000008284                UARTTxIntModeGet
 .text.UARTCharsAvail
                0x000000000000828c        0xc /mnt/storage/project/2kwMotorController/firmware/Tivaware/driverlib/gcc/libdriver.a(uart.o)
                0x000000000000828c                UARTCharsAvail
 .text.UARTSpaceAvail
                0x0000000000008298        0xc /mnt/storage/project/2kwMotorController/firmware/Tivaware/driverlib/gcc/libdriver.a(uart.o)
                0x0000000000008298                UARTSpaceAvail
 .text.UARTCharGetNonBlocking
                0x00000000000082a4        0xe /mnt/storage/project/2kwMotorController/firmware/Tivaware/driverlib/gcc/libdriver.a(uart.o)
                0x00000000000082a4                UARTCharGetNonBlocking
 .text.UARTCharGet
                0x00000000000082b2        0xa /mnt/storage/project/2kwMotorController/firmware/Tivaware/driverlib/gcc/libdriver.a(uart.o)
                0x00000000000082b2                UARTCharGet
 .text.UARTCharPutNonBlocking
                0x00000000000082bc       0x10 /mnt/storage/project/2kwMotorController/firmware/Tivaware/driverlib/gcc/libdriver.a(uart.o)
                0x00000000000082bc                UARTCharPutNonBlocking
 .text.UARTCharPut
                0x00000000000082cc        0xa /mnt/storage/project/2kwMotorController/firmware/Tivaware/driverlib/gcc/libdriver.a(uart.o)
                0x00000000000082cc                UARTCharPut
 .text.UARTBreakCtl
                0x00000000000082d6       0x16 /mnt/storage/project/2kwMotorController/firmware/Tivaware/driverlib/gcc/libdriver.a(uart.o)
                0x00000000000082d6                UARTBreakCtl
 .text.UARTBusy
                0x00000000000082ec        0x8 /mnt/storage/project/2kwMotorController/firmware/Tivaware/driverlib/gcc/libdriver.a(uart.o)
                0x00000000000082ec                UARTBusy
 .text.UARTIntRegister
                0x00000000000082f4       0x1a /mnt/storage/project/2kwMotorController/firmware/Tivaware/driverlib/gcc/libdriver.a(uart.o)
                0x00000000000082f4                UARTIntRegister
 .text.UARTIntUnregister
                0x000000000000830e       0x16 /mnt/storage/project/2kwMotorController/firmware/Tivaware/driverlib/gcc/libdriver.a(uart.o)
                0x000000000000830e                UARTIntUnregister
 .text.UARTIntEnable
                0x0000000000008324        0x8 /mnt/storage/project/2kwMotorController/firmware/Tivaware/driverlib/gcc/libdriver.a(uart.o)
                0x0000000000008324                UARTIntEnable
 .text.UARTIntDisable
                0x000000000000832c        0xa /mnt/storage/project/2kwMotorController/firmware/Tivaware/driverlib/gcc/libdriver.a(uart.o)
                0x000000000000832c                UARTIntDisable
 .text.UARTIntStatus
                0x0000000000008336        0xa /mnt/storage/project/2kwMotorController/firmware/Tivaware/driverlib/gcc/libdriver.a(uart.o)
                0x0000000000008336                UARTIntStatus
 .text.UARTIntClear
                0x0000000000008340        0x4 /mnt/storage/project/2kwMotorController/firmware/Tivaware/driverlib/gcc/libdriver.a(uart.o)
                0x0000000000008340                UARTIntClear
 .text.UARTDMAEnable
                0x0000000000008344        0x8 /mnt/storage/project/2kwMotorController/firmware/Tivaware/driverlib/gcc/libdriver.a(uart.o)
                0x0000000000008344                UARTDMAEnable
 .text.UARTDMADisable
                0x000000000000834c        0xa /mnt/storage/project/2kwMotorController/firmware/Tivaware/driverlib/gcc/libdriver.a(uart.o)
                0x000000000000834c                UARTDMADisable
 .text.UARTRxErrorGet
                0x0000000000008356        0x8 /mnt/storage/project/2kwMotorController/firmware/Tivaware/driverlib/gcc/libdriver.a(uart.o)
                0x0000000000008356                UARTRxErrorGet
 .text.UARTRxErrorClear
                0x000000000000835e        0x6 /mnt/storage/project/2kwMotorController/firmware/Tivaware/driverlib/gcc/libdriver.a(uart.o)
                0x000000000000835e                UARTRxErrorClear
 .text.UARTClockSourceSet
                0x0000000000008364        0x6 /mnt/storage/project/2kwMotorController/firmware/Tivaware/driverlib/gcc/libdriver.a(uart.o)
                0x0000000000008364                UARTClockSourceSet
 .text.UARTClockSourceGet
                0x000000000000836a        0x6 /mnt/storage/project/2kwMotorController/firmware/Tivaware/driverlib/gcc/libdriver.a(uart.o)
                0x000000000000836a                UARTClockSourceGet
 .text.UART9BitEnable
                0x0000000000008370        0xe /mnt/storage/project/2kwMotorController/firmware/Tivaware/driverlib/gcc/libdriver.a(uart.o)
                0x0000000000008370                UART9BitEnable
 .text.UART9BitDisable
                0x000000000000837e        0xe /mnt/storage/project/2kwMotorController/firmware/Tivaware/driverlib/gcc/libdriver.a(uart.o)
                0x000000000000837e                UART9BitDisable
 .text.UART9BitAddrSet
                0x000000000000838c        0xa /mnt/storage/project/2kwMotorController/firmware/Tivaware/driverlib/gcc/libdriver.a(uart.o)
                0x000000000000838c                UART9BitAddrSet
 .text.UART9BitAddrSend
                0x0000000000008396       0x2c /mnt/storage/project/2kwMotorController/firmware/Tivaware/driverlib/gcc/libdriver.a(uart.o)
                0x0000000000008396                UART9BitAddrSend
 .text.UARTLoopbackEnable
                0x00000000000083c2        0xa /mnt/storage/project/2kwMotorController/firmware/Tivaware/driverlib/gcc/libdriver.a(uart.o)
                0x00000000000083c2                UARTLoopbackEnable
 .text.uDMAEnable
                0x00000000000083cc        0xc /mnt/storage/project/2kwMotorController/firmware/Tivaware/driverlib/gcc/libdriver.a(udma.o)
                0x00000000000083cc                uDMAEnable
 .text.uDMADisable
                0x00000000000083d8        0xc /mnt/storage/project/2kwMotorController/firmware/Tivaware/driverlib/gcc/libdriver.a(udma.o)
                0x00000000000083d8                uDMADisable
 .text.uDMAErrorStatusGet
                0x00000000000083e4        0xc /mnt/storage/project/2kwMotorController/firmware/Tivaware/driverlib/gcc/libdriver.a(udma.o)
                0x00000000000083e4                uDMAErrorStatusGet
 .text.uDMAErrorStatusClear
                0x00000000000083f0        0xc /mnt/storage/project/2kwMotorController/firmware/Tivaware/driverlib/gcc/libdriver.a(udma.o)
                0x00000000000083f0                uDMAErrorStatusClear
 .text.uDMAChannelEnable
                0x00000000000083fc       0x14 /mnt/storage/project/2kwMotorController/firmware/Tivaware/driverlib/gcc/libdriver.a(udma.o)
                0x00000000000083fc                uDMAChannelEnable
 .text.uDMAChannelDisable
                0x0000000000008410       0x14 /mnt/storage/project/2kwMotorController/firmware/Tivaware/driverlib/gcc/libdriver.a(udma.o)
                0x0000000000008410                uDMAChannelDisable
 .text.uDMAChannelIsEnabled
                0x0000000000008424       0x1c /mnt/storage/project/2kwMotorController/firmware/Tivaware/driverlib/gcc/libdriver.a(udma.o)
                0x0000000000008424                uDMAChannelIsEnabled
 .text.uDMAControlBaseSet
                0x0000000000008440        0xc /mnt/storage/project/2kwMotorController/firmware/Tivaware/driverlib/gcc/libdriver.a(udma.o)
                0x0000000000008440                uDMAControlBaseSet
 .text.uDMAControlBaseGet
                0x000000000000844c        0xc /mnt/storage/project/2kwMotorController/firmware/Tivaware/driverlib/gcc/libdriver.a(udma.o)
                0x000000000000844c                uDMAControlBaseGet
 .text.uDMAControlAlternateBaseGet
                0x0000000000008458        0xc /mnt/storage/project/2kwMotorController/firmware/Tivaware/driverlib/gcc/libdriver.a(udma.o)
                0x0000000000008458                uDMAControlAlternateBaseGet
 .text.uDMAChannelRequest
                0x0000000000008464       0x14 /mnt/storage/project/2kwMotorController/firmware/Tivaware/driverlib/gcc/libdriver.a(udma.o)
                0x0000000000008464                uDMAChannelRequest
 .text.uDMAChannelAttributeEnable
                0x0000000000008478       0x50 /mnt/storage/project/2kwMotorController/firmware/Tivaware/driverlib/gcc/libdriver.a(udma.o)
                0x0000000000008478                uDMAChannelAttributeEnable
 .text.uDMAChannelAttributeDisable
                0x00000000000084c8       0x50 /mnt/storage/project/2kwMotorController/firmware/Tivaware/driverlib/gcc/libdriver.a(udma.o)
                0x00000000000084c8                uDMAChannelAttributeDisable
 .text.uDMAChannelAttributeGet
                0x0000000000008518       0x4c /mnt/storage/project/2kwMotorController/firmware/Tivaware/driverlib/gcc/libdriver.a(udma.o)
                0x0000000000008518                uDMAChannelAttributeGet
 .text.uDMAChannelControlSet
                0x0000000000008564       0x20 /mnt/storage/project/2kwMotorController/firmware/Tivaware/driverlib/gcc/libdriver.a(udma.o)
                0x0000000000008564                uDMAChannelControlSet
 .text.uDMAChannelTransferSet
                0x0000000000008584       0x88 /mnt/storage/project/2kwMotorController/firmware/Tivaware/driverlib/gcc/libdriver.a(udma.o)
                0x0000000000008584                uDMAChannelTransferSet
 .text.uDMAChannelScatterGatherSet
                0x000000000000860c       0x50 /mnt/storage/project/2kwMotorController/firmware/Tivaware/driverlib/gcc/libdriver.a(udma.o)
                0x000000000000860c                uDMAChannelScatterGatherSet
 .text.uDMAChannelSizeGet
                0x000000000000865c       0x20 /mnt/storage/project/2kwMotorController/firmware/Tivaware/driverlib/gcc/libdriver.a(udma.o)
                0x000000000000865c                uDMAChannelSizeGet
 .text.uDMAChannelModeGet
                0x000000000000867c       0x24 /mnt/storage/project/2kwMotorController/firmware/Tivaware/driverlib/gcc/libdriver.a(udma.o)
                0x000000000000867c                uDMAChannelModeGet
 .text.uDMAIntRegister
                0x00000000000086a0       0x12 /mnt/storage/project/2kwMotorController/firmware/Tivaware/driverlib/gcc/libdriver.a(udma.o)
                0x00000000000086a0                uDMAIntRegister
 .text.uDMAIntUnregister
                0x00000000000086b2       0x12 /mnt/storage/project/2kwMotorController/firmware/Tivaware/driverlib/gcc/libdriver.a(udma.o)
                0x00000000000086b2                uDMAIntUnregister
 .text.uDMAIntStatus
                0x00000000000086c4        0xc /mnt/storage/project/2kwMotorController/firmware/Tivaware/driverlib/gcc/libdriver.a(udma.o)
                0x00000000000086c4                uDMAIntStatus
 .text.uDMAIntClear
                0x00000000000086d0        0xc /mnt/storage/project/2kwMotorController/firmware/Tivaware/driverlib/gcc/libdriver.a(udma.o)
                0x00000000000086d0                uDMAIntClear
 .text.uDMAChannelAssign
                0x00000000000086dc       0x30 /mnt/storage/project/2kwMotorController/firmware/Tivaware/driverlib/gcc/libdriver.a(udma.o)
                0x00000000000086dc                uDMAChannelAssign
 .text.uDMAChannelSelectSecondary
                0x000000000000870c       0x10 /mnt/storage/project/2kwMotorController/firmware/Tivaware/driverlib/gcc/libdriver.a(udma.o)
                0x000000000000870c                uDMAChannelSelectSecondary
 .text.uDMAChannelSelectDefault
                0x000000000000871c       0x10 /mnt/storage/project/2kwMotorController/firmware/Tivaware/driverlib/gcc/libdriver.a(udma.o)
                0x000000000000871c                uDMAChannelSelectDefault
 .text.CPUcpsid
                0x000000000000872c        0x8 /mnt/storage/project/2kwMotorController/firmware/Tivaware/driverlib/gcc/libdriver.a(cpu.o)
                0x000000000000872c                CPUcpsid
 .text.CPUprimask
                0x0000000000008734        0x6 /mnt/storage/project/2kwMotorController/firmware/Tivaware/driverlib/gcc/libdriver.a(cpu.o)
                0x0000000000008734                CPUprimask
 .text.CPUcpsie
                0x000000000000873a        0x8 /mnt/storage/project/2kwMotorController/firmware/Tivaware/driverlib/gcc/libdriver.a(cpu.o)
                0x000000000000873a                CPUcpsie
 .text.CPUwfi   0x0000000000008742        0x4 /mnt/storage/project/2kwMotorController/firmware/Tivaware/driverlib/gcc/libdriver.a(cpu.o)
                0x0000000000008742                CPUwfi
 .text.CPUbasepriSet
                0x0000000000008746        0x6 /mnt/storage/project/2kwMotorController/firmware/Tivaware/driverlib/gcc/libdriver.a(cpu.o)
                0x0000000000008746                CPUbasepriSet
 .text.CPUbasepriGet
                0x000000000000874c        0x6 /mnt/storage/project/2kwMotorController/firmware/Tivaware/driverlib/gcc/libdriver.a(cpu.o)
                0x000000000000874c                CPUbasepriGet
 *fill*         0x0000000000008752        0x2 
 .text._sbrk    0x0000000000008754       0x1c /home/odougs/bin/ti/ccsv7/tools/compiler/gcc-arm-none-eabi-6-2017-q1-update/bin/../lib/gcc/arm-none-eabi/6.3.1/../../../../arm-none-eabi/lib/thumb/v7e-m/fpv4-sp/hard/libnosys.a(sbrk.o)
                0x0000000000008754                _sbrk
 .text._exit    0x0000000000008770        0x4 /home/odougs/bin/ti/ccsv7/tools/compiler/gcc-arm-none-eabi-6-2017-q1-update/bin/../lib/gcc/arm-none-eabi/6.3.1/../../../../arm-none-eabi/lib/thumb/v7e-m/fpv4-sp/hard/libnosys.a(_exit.o)
                0x0000000000008770                _exit
                0x0000000000008774                . = ALIGN (0x4)
 *(.ctors)
                0x0000000000008774                . = ALIGN (0x4)
 *(.dtors)
                0x0000000000008774                . = ALIGN (0x4)
                0x0000000000008774                __init_array_start = .
 *(.init_array*)
 .init_array    0x0000000000008774        0x4 /home/odougs/bin/ti/ccsv7/tools/compiler/gcc-arm-none-eabi-6-2017-q1-update/bin/../lib/gcc/arm-none-eabi/6.3.1/thumb/v7e-m/fpv4-sp/hard/crtbegin.o
 .init_array.00000
                0x0000000000008778        0x4 /home/odougs/bin/ti/ccsv7/tools/compiler/gcc-arm-none-eabi-6-2017-q1-update/bin/../lib/gcc/arm-none-eabi/6.3.1/../../../../arm-none-eabi/lib/thumb/v7e-m/fpv4-sp/hard/libc.a(lib_a-__call_atexit.o)
                0x000000000000877c                __init_array_end = .
 *(.init)
 .init          0x000000000000877c        0x4 /home/odougs/bin/ti/ccsv7/tools/compiler/gcc-arm-none-eabi-6-2017-q1-update/bin/../lib/gcc/arm-none-eabi/6.3.1/thumb/v7e-m/fpv4-sp/hard/crti.o
                0x000000000000877c                _init
 .init          0x0000000000008780        0x8 /home/odougs/bin/ti/ccsv7/tools/compiler/gcc-arm-none-eabi-6-2017-q1-update/bin/../lib/gcc/arm-none-eabi/6.3.1/thumb/v7e-m/fpv4-sp/hard/crtn.o
 *(.fini*)
 .fini          0x0000000000008788        0x4 /home/odougs/bin/ti/ccsv7/tools/compiler/gcc-arm-none-eabi-6-2017-q1-update/bin/../lib/gcc/arm-none-eabi/6.3.1/thumb/v7e-m/fpv4-sp/hard/crti.o
                0x0000000000008788                _fini
 .fini_array    0x000000000000878c        0x4 /home/odougs/bin/ti/ccsv7/tools/compiler/gcc-arm-none-eabi-6-2017-q1-update/bin/../lib/gcc/arm-none-eabi/6.3.1/thumb/v7e-m/fpv4-sp/hard/crtbegin.o
 .fini          0x0000000000008790        0x8 /home/odougs/bin/ti/ccsv7/tools/compiler/gcc-arm-none-eabi-6-2017-q1-update/bin/../lib/gcc/arm-none-eabi/6.3.1/thumb/v7e-m/fpv4-sp/hard/crtn.o
                [!provide]                        PROVIDE (__etext, .)
                [!provide]                        PROVIDE (_etext, .)
                [!provide]                        PROVIDE (etext, .)

.glue_7         0x0000000000008798        0x0
 .glue_7        0x0000000000008798        0x0 linker stubs

.glue_7t        0x0000000000008798        0x0
 .glue_7t       0x0000000000008798        0x0 linker stubs

.vfp11_veneer   0x0000000000008798        0x0
 .vfp11_veneer  0x0000000000008798        0x0 linker stubs

.v4_bx          0x0000000000008798        0x0
 .v4_bx         0x0000000000008798        0x0 linker stubs

.iplt           0x0000000000008798        0x0
 .iplt          0x0000000000008798        0x0 /home/odougs/bin/ti/ccsv7/tools/compiler/gcc-arm-none-eabi-6-2017-q1-update/bin/../lib/gcc/arm-none-eabi/6.3.1/thumb/v7e-m/fpv4-sp/hard/crtbegin.o

.rodata         0x0000000000008798     0x1238
 *(.rodata)
 *(.rodata*)
 .rodata.IntDefaultHandler.str1.4
                0x0000000000008798       0x20 ./startup.o
 .rodata.prvGetRegistersFromStack.str1.4
                0x00000000000087b8       0xb7 ./startup.o
 *fill*         0x000000000000886f        0x1 
 .rodata.vTaskStartScheduler.str1.4
                0x0000000000008870        0x5 ./FreeRTOS/tasks.o
 *fill*         0x0000000000008875        0x3 
 .rodata.logger_task_code.str1.4
                0x0000000000008878       0x28 ./source/logger.o
 .rodata.assertion_failed.str1.4
                0x00000000000088a0       0x26 ./source/main.o
 *fill*         0x00000000000088c6        0x2 
 .rodata.main.str1.4
                0x00000000000088c8       0x4d ./source/main.o
 *fill*         0x0000000000008915        0x3 
 .rodata.h_decimator
                0x0000000000008918       0x54 ./source/sensors.o
 .rodata.sensors_rt_current_update.str1.4
                0x000000000000896c        0x4 ./source/sensors.o
 .rodata.cmd_table
                0x0000000000008970       0x38 ./source/system.o
 .rodata.thermistor_table
                0x00000000000089a8      0x93c ./source/thermistor_lut.o
                0x00000000000089a8                thermistor_table
 .rodata.put_dump.str1.4
                0x00000000000092e4       0x20 ./source/xprintf.o
                                         0x1f (size before relaxing)
 .rodata._global_impure_ptr
                0x0000000000009304        0x4 /home/odougs/bin/ti/ccsv7/tools/compiler/gcc-arm-none-eabi-6-2017-q1-update/bin/../lib/gcc/arm-none-eabi/6.3.1/../../../../arm-none-eabi/lib/thumb/v7e-m/fpv4-sp/hard/libc.a(lib_a-impure.o)
                0x0000000000009304                _global_impure_ptr
 .rodata.g_ui16CANBitValues
                0x0000000000009308       0x20 /mnt/storage/project/2kwMotorController/firmware/Tivaware/driverlib/gcc/libdriver.a(can.o)
 .rodata.g_ppui32GPIOIntMapSnowflake
                0x0000000000009328       0xd8 /mnt/storage/project/2kwMotorController/firmware/Tivaware/driverlib/gcc/libdriver.a(gpio.o)
 .rodata.g_pui32GPIOBaseAddrs
                0x0000000000009400       0x90 /mnt/storage/project/2kwMotorController/firmware/Tivaware/driverlib/gcc/libdriver.a(gpio.o)
 .rodata.g_ppui32GPIOIntMapBlizzard
                0x0000000000009490       0xc0 /mnt/storage/project/2kwMotorController/firmware/Tivaware/driverlib/gcc/libdriver.a(gpio.o)
 .rodata.g_pui32Priority
                0x0000000000009550       0x20 /mnt/storage/project/2kwMotorController/firmware/Tivaware/driverlib/gcc/libdriver.a(interrupt.o)
 .rodata.g_pui32Dii16Regs
                0x0000000000009570       0x14 /mnt/storage/project/2kwMotorController/firmware/Tivaware/driverlib/gcc/libdriver.a(interrupt.o)
 .rodata.g_pui32PendRegs
                0x0000000000009584       0x14 /mnt/storage/project/2kwMotorController/firmware/Tivaware/driverlib/gcc/libdriver.a(interrupt.o)
 .rodata.g_pui32Regs
                0x0000000000009598       0x9c /mnt/storage/project/2kwMotorController/firmware/Tivaware/driverlib/gcc/libdriver.a(interrupt.o)
 .rodata.g_pui32EnRegs
                0x0000000000009634       0x14 /mnt/storage/project/2kwMotorController/firmware/Tivaware/driverlib/gcc/libdriver.a(interrupt.o)
 .rodata.g_pui32UnpendRegs
                0x0000000000009648       0x14 /mnt/storage/project/2kwMotorController/firmware/Tivaware/driverlib/gcc/libdriver.a(interrupt.o)
 .rodata.g_pppui32XTALtoVCO
                0x000000000000965c      0x1b0 /mnt/storage/project/2kwMotorController/firmware/Tivaware/driverlib/gcc/libdriver.a(sysctl.o)
 .rodata.g_pui32VCOFrequencies
                0x000000000000980c        0x8 /mnt/storage/project/2kwMotorController/firmware/Tivaware/driverlib/gcc/libdriver.a(sysctl.o)
 .rodata.g_sXTALtoMEMTIM
                0x0000000000009814       0x30 /mnt/storage/project/2kwMotorController/firmware/Tivaware/driverlib/gcc/libdriver.a(sysctl.o)
 .rodata.g_pui32Xtals
                0x0000000000009844       0x6c /mnt/storage/project/2kwMotorController/firmware/Tivaware/driverlib/gcc/libdriver.a(sysctl.o)
 .rodata.g_ppui32TimerIntMapSnowflake
                0x00000000000098b0       0x40 /mnt/storage/project/2kwMotorController/firmware/Tivaware/driverlib/gcc/libdriver.a(timer.o)
 .rodata.g_ppui32TimerIntMap
                0x00000000000098f0       0x60 /mnt/storage/project/2kwMotorController/firmware/Tivaware/driverlib/gcc/libdriver.a(timer.o)
 .rodata.g_ppui32UARTIntMap
                0x0000000000009950       0x40 /mnt/storage/project/2kwMotorController/firmware/Tivaware/driverlib/gcc/libdriver.a(uart.o)
 .rodata.g_ppui32UARTIntMapSnowflake
                0x0000000000009990       0x40 /mnt/storage/project/2kwMotorController/firmware/Tivaware/driverlib/gcc/libdriver.a(uart.o)

.eh_frame       0x00000000000099d0        0x4
 .eh_frame      0x00000000000099d0        0x0 /home/odougs/bin/ti/ccsv7/tools/compiler/gcc-arm-none-eabi-6-2017-q1-update/bin/../lib/gcc/arm-none-eabi/6.3.1/thumb/v7e-m/fpv4-sp/hard/crtbegin.o
 .eh_frame      0x00000000000099d0        0x4 /home/odougs/bin/ti/ccsv7/tools/compiler/gcc-arm-none-eabi-6-2017-q1-update/bin/../lib/gcc/arm-none-eabi/6.3.1/thumb/v7e-m/fpv4-sp/hard/crtend.o

.data           0x0000000020000000      0x8e4 load address 0x00000000000099d4
                0x00000000000099d4                __data_load__ = LOADADDR (.data)
                0x0000000020000000                __data_start__ = .
 *(.data)
 .data          0x0000000020000000        0x0 /home/odougs/bin/ti/ccsv7/tools/compiler/gcc-arm-none-eabi-6-2017-q1-update/bin/../lib/gcc/arm-none-eabi/6.3.1/thumb/v7e-m/fpv4-sp/hard/crti.o
 .data          0x0000000020000000        0x4 /home/odougs/bin/ti/ccsv7/tools/compiler/gcc-arm-none-eabi-6-2017-q1-update/bin/../lib/gcc/arm-none-eabi/6.3.1/thumb/v7e-m/fpv4-sp/hard/crtbegin.o
                0x0000000020000000                __dso_handle
 .data          0x0000000020000004        0x0 /home/odougs/bin/ti/ccsv7/tools/compiler/gcc-arm-none-eabi-6-2017-q1-update/bin/../lib/gcc/arm-none-eabi/6.3.1/../../../../arm-none-eabi/lib/thumb/v7e-m/fpv4-sp/hard/crt0.o
 .data          0x0000000020000004        0x0 ./startup.o
 .data          0x0000000020000004        0x0 ./FreeRTOS/event_groups.o
 .data          0x0000000020000004        0x0 ./FreeRTOS/heap_1.o
 .data          0x0000000020000004        0x0 ./FreeRTOS/list.o
 .data          0x0000000020000004        0x0 ./FreeRTOS/port.o
 .data          0x0000000020000004        0x0 ./FreeRTOS/queue.o
 .data          0x0000000020000004        0x0 ./FreeRTOS/tasks.o
 .data          0x0000000020000004        0x0 ./FreeRTOS/timers.o
 .data          0x0000000020000004        0x0 ./source/can.o
 .data          0x0000000020000004        0x0 ./source/control.o
 .data          0x0000000020000004        0x0 ./source/debug.o
 .data          0x0000000020000004        0x0 ./source/encoder.o
 .data          0x0000000020000004        0x0 ./source/fir.o
 .data          0x0000000020000004        0x0 ./source/logger.o
 .data          0x0000000020000004        0x0 ./source/main.o
 .data          0x0000000020000004        0x0 ./source/pinconfig.o
 .data          0x0000000020000004        0x0 ./source/sensors.o
 .data          0x0000000020000004        0x0 ./source/system.o
 .data          0x0000000020000004        0x0 ./source/thermistor_lut.o
 .data          0x0000000020000004        0x0 ./source/xprintf.o
 .data          0x0000000020000004        0x0 /home/odougs/bin/ti/ccsv7/tools/compiler/gcc-arm-none-eabi-6-2017-q1-update/bin/../lib/gcc/arm-none-eabi/6.3.1/../../../../arm-none-eabi/lib/thumb/v7e-m/fpv4-sp/hard/libc.a(lib_a-calloc.o)
 .data          0x0000000020000004        0x0 /home/odougs/bin/ti/ccsv7/tools/compiler/gcc-arm-none-eabi-6-2017-q1-update/bin/../lib/gcc/arm-none-eabi/6.3.1/../../../../arm-none-eabi/lib/thumb/v7e-m/fpv4-sp/hard/libc.a(lib_a-callocr.o)
 .data          0x0000000020000004        0x0 /home/odougs/bin/ti/ccsv7/tools/compiler/gcc-arm-none-eabi-6-2017-q1-update/bin/../lib/gcc/arm-none-eabi/6.3.1/../../../../arm-none-eabi/lib/thumb/v7e-m/fpv4-sp/hard/libc.a(lib_a-exit.o)
 .data          0x0000000020000004        0x0 /home/odougs/bin/ti/ccsv7/tools/compiler/gcc-arm-none-eabi-6-2017-q1-update/bin/../lib/gcc/arm-none-eabi/6.3.1/../../../../arm-none-eabi/lib/thumb/v7e-m/fpv4-sp/hard/libc.a(lib_a-impure.o)
 .data          0x0000000020000004        0x0 /home/odougs/bin/ti/ccsv7/tools/compiler/gcc-arm-none-eabi-6-2017-q1-update/bin/../lib/gcc/arm-none-eabi/6.3.1/../../../../arm-none-eabi/lib/thumb/v7e-m/fpv4-sp/hard/libc.a(lib_a-init.o)
 .data          0x0000000020000004        0x0 /home/odougs/bin/ti/ccsv7/tools/compiler/gcc-arm-none-eabi-6-2017-q1-update/bin/../lib/gcc/arm-none-eabi/6.3.1/../../../../arm-none-eabi/lib/thumb/v7e-m/fpv4-sp/hard/libc.a(lib_a-malloc.o)
 .data          0x0000000020000004        0x0 /home/odougs/bin/ti/ccsv7/tools/compiler/gcc-arm-none-eabi-6-2017-q1-update/bin/../lib/gcc/arm-none-eabi/6.3.1/../../../../arm-none-eabi/lib/thumb/v7e-m/fpv4-sp/hard/libc.a(lib_a-mallocr.o)
 .data          0x0000000020000004        0x0 /home/odougs/bin/ti/ccsv7/tools/compiler/gcc-arm-none-eabi-6-2017-q1-update/bin/../lib/gcc/arm-none-eabi/6.3.1/../../../../arm-none-eabi/lib/thumb/v7e-m/fpv4-sp/hard/libc.a(lib_a-memcpy.o)
 .data          0x0000000020000004        0x0 /home/odougs/bin/ti/ccsv7/tools/compiler/gcc-arm-none-eabi-6-2017-q1-update/bin/../lib/gcc/arm-none-eabi/6.3.1/../../../../arm-none-eabi/lib/thumb/v7e-m/fpv4-sp/hard/libc.a(lib_a-memset.o)
 .data          0x0000000020000004        0x0 /home/odougs/bin/ti/ccsv7/tools/compiler/gcc-arm-none-eabi-6-2017-q1-update/bin/../lib/gcc/arm-none-eabi/6.3.1/../../../../arm-none-eabi/lib/thumb/v7e-m/fpv4-sp/hard/libc.a(lib_a-mlock.o)
 .data          0x0000000020000004        0x0 /home/odougs/bin/ti/ccsv7/tools/compiler/gcc-arm-none-eabi-6-2017-q1-update/bin/../lib/gcc/arm-none-eabi/6.3.1/../../../../arm-none-eabi/lib/thumb/v7e-m/fpv4-sp/hard/libc.a(lib_a-sbrkr.o)
 .data          0x0000000020000004        0x0 /home/odougs/bin/ti/ccsv7/tools/compiler/gcc-arm-none-eabi-6-2017-q1-update/bin/../lib/gcc/arm-none-eabi/6.3.1/../../../../arm-none-eabi/lib/thumb/v7e-m/fpv4-sp/hard/libc.a(lib_a-__call_atexit.o)
 .data          0x0000000020000004        0x0 /home/odougs/bin/ti/ccsv7/tools/compiler/gcc-arm-none-eabi-6-2017-q1-update/bin/../lib/gcc/arm-none-eabi/6.3.1/../../../../arm-none-eabi/lib/thumb/v7e-m/fpv4-sp/hard/libc.a(lib_a-atexit.o)
 .data          0x0000000020000004        0x0 /home/odougs/bin/ti/ccsv7/tools/compiler/gcc-arm-none-eabi-6-2017-q1-update/bin/../lib/gcc/arm-none-eabi/6.3.1/../../../../arm-none-eabi/lib/thumb/v7e-m/fpv4-sp/hard/libc.a(lib_a-fini.o)
 .data          0x0000000020000004        0x0 /home/odougs/bin/ti/ccsv7/tools/compiler/gcc-arm-none-eabi-6-2017-q1-update/bin/../lib/gcc/arm-none-eabi/6.3.1/../../../../arm-none-eabi/lib/thumb/v7e-m/fpv4-sp/hard/libc.a(lib_a-freer.o)
 .data          0x0000000020000004        0x0 /home/odougs/bin/ti/ccsv7/tools/compiler/gcc-arm-none-eabi-6-2017-q1-update/bin/../lib/gcc/arm-none-eabi/6.3.1/../../../../arm-none-eabi/lib/thumb/v7e-m/fpv4-sp/hard/libc.a(lib_a-lock.o)
 .data          0x0000000020000004        0x0 /home/odougs/bin/ti/ccsv7/tools/compiler/gcc-arm-none-eabi-6-2017-q1-update/bin/../lib/gcc/arm-none-eabi/6.3.1/../../../../arm-none-eabi/lib/thumb/v7e-m/fpv4-sp/hard/libc.a(lib_a-reent.o)
 .data          0x0000000020000004        0x0 /home/odougs/bin/ti/ccsv7/tools/compiler/gcc-arm-none-eabi-6-2017-q1-update/bin/../lib/gcc/arm-none-eabi/6.3.1/../../../../arm-none-eabi/lib/thumb/v7e-m/fpv4-sp/hard/libc.a(lib_a-__atexit.o)
 .data          0x0000000020000004        0x0 /mnt/storage/project/2kwMotorController/firmware/Tivaware/driverlib/gcc/libdriver.a(adc.o)
 .data          0x0000000020000004        0x0 /mnt/storage/project/2kwMotorController/firmware/Tivaware/driverlib/gcc/libdriver.a(can.o)
 .data          0x0000000020000004        0x0 /mnt/storage/project/2kwMotorController/firmware/Tivaware/driverlib/gcc/libdriver.a(gpio.o)
 .data          0x0000000020000004        0x0 /mnt/storage/project/2kwMotorController/firmware/Tivaware/driverlib/gcc/libdriver.a(interrupt.o)
 .data          0x0000000020000004        0x0 /mnt/storage/project/2kwMotorController/firmware/Tivaware/driverlib/gcc/libdriver.a(pwm.o)
 .data          0x0000000020000004        0x0 /mnt/storage/project/2kwMotorController/firmware/Tivaware/driverlib/gcc/libdriver.a(qei.o)
 .data          0x0000000020000004        0x0 /mnt/storage/project/2kwMotorController/firmware/Tivaware/driverlib/gcc/libdriver.a(sysctl.o)
 .data          0x0000000020000004        0x0 /mnt/storage/project/2kwMotorController/firmware/Tivaware/driverlib/gcc/libdriver.a(timer.o)
 .data          0x0000000020000004        0x0 /mnt/storage/project/2kwMotorController/firmware/Tivaware/driverlib/gcc/libdriver.a(uart.o)
 .data          0x0000000020000004        0x0 /mnt/storage/project/2kwMotorController/firmware/Tivaware/driverlib/gcc/libdriver.a(udma.o)
 .data          0x0000000020000004        0x0 /mnt/storage/project/2kwMotorController/firmware/Tivaware/driverlib/gcc/libdriver.a(cpu.o)
 .data          0x0000000020000004        0x0 /home/odougs/bin/ti/ccsv7/tools/compiler/gcc-arm-none-eabi-6-2017-q1-update/bin/../lib/gcc/arm-none-eabi/6.3.1/../../../../arm-none-eabi/lib/thumb/v7e-m/fpv4-sp/hard/libnosys.a(sbrk.o)
 .data          0x0000000020000004        0x0 /home/odougs/bin/ti/ccsv7/tools/compiler/gcc-arm-none-eabi-6-2017-q1-update/bin/../lib/gcc/arm-none-eabi/6.3.1/../../../../arm-none-eabi/lib/thumb/v7e-m/fpv4-sp/hard/libnosys.a(_exit.o)
 .data          0x0000000020000004        0x0 /home/odougs/bin/ti/ccsv7/tools/compiler/gcc-arm-none-eabi-6-2017-q1-update/bin/../lib/gcc/arm-none-eabi/6.3.1/thumb/v7e-m/fpv4-sp/hard/crtend.o
 .data          0x0000000020000004        0x0 /home/odougs/bin/ti/ccsv7/tools/compiler/gcc-arm-none-eabi-6-2017-q1-update/bin/../lib/gcc/arm-none-eabi/6.3.1/thumb/v7e-m/fpv4-sp/hard/crtn.o
 *(.data*)
 .data.uxCriticalNesting
                0x0000000020000004        0x4 ./FreeRTOS/port.o
 .data.leds_table
                0x0000000020000008       0x20 ./source/debug.o
                0x0000000020000008                leds_table
 .data.adc_dest
                0x0000000020000028        0x4 ./source/sensors.o
                0x0000000020000028                adc_dest
 .data.adc_src  0x000000002000002c        0x4 ./source/sensors.o
                0x000000002000002c                adc_src
 .data.config_registers
                0x0000000020000030       0x5c ./source/system.o
 .data.state_registers
                0x000000002000008c       0x14 ./source/system.o
 .data._impure_ptr
                0x00000000200000a0        0x4 /home/odougs/bin/ti/ccsv7/tools/compiler/gcc-arm-none-eabi-6-2017-q1-update/bin/../lib/gcc/arm-none-eabi/6.3.1/../../../../arm-none-eabi/lib/thumb/v7e-m/fpv4-sp/hard/libc.a(lib_a-impure.o)
                0x00000000200000a0                _impure_ptr
 *fill*         0x00000000200000a4        0x4 
 .data.impure_data
                0x00000000200000a8      0x428 /home/odougs/bin/ti/ccsv7/tools/compiler/gcc-arm-none-eabi-6-2017-q1-update/bin/../lib/gcc/arm-none-eabi/6.3.1/../../../../arm-none-eabi/lib/thumb/v7e-m/fpv4-sp/hard/libc.a(lib_a-impure.o)
 .data.__malloc_av_
                0x00000000200004d0      0x408 /home/odougs/bin/ti/ccsv7/tools/compiler/gcc-arm-none-eabi-6-2017-q1-update/bin/../lib/gcc/arm-none-eabi/6.3.1/../../../../arm-none-eabi/lib/thumb/v7e-m/fpv4-sp/hard/libc.a(lib_a-mallocr.o)
                0x00000000200004d0                __malloc_av_
 .data.__malloc_sbrk_base
                0x00000000200008d8        0x4 /home/odougs/bin/ti/ccsv7/tools/compiler/gcc-arm-none-eabi-6-2017-q1-update/bin/../lib/gcc/arm-none-eabi/6.3.1/../../../../arm-none-eabi/lib/thumb/v7e-m/fpv4-sp/hard/libc.a(lib_a-mallocr.o)
                0x00000000200008d8                __malloc_sbrk_base
 .data.__malloc_trim_threshold
                0x00000000200008dc        0x4 /home/odougs/bin/ti/ccsv7/tools/compiler/gcc-arm-none-eabi-6-2017-q1-update/bin/../lib/gcc/arm-none-eabi/6.3.1/../../../../arm-none-eabi/lib/thumb/v7e-m/fpv4-sp/hard/libc.a(lib_a-mallocr.o)
                0x00000000200008dc                __malloc_trim_threshold
 .data.__atexit_recursive_mutex
                0x00000000200008e0        0x4 /home/odougs/bin/ti/ccsv7/tools/compiler/gcc-arm-none-eabi-6-2017-q1-update/bin/../lib/gcc/arm-none-eabi/6.3.1/../../../../arm-none-eabi/lib/thumb/v7e-m/fpv4-sp/hard/libc.a(lib_a-__call_atexit.o)
                0x00000000200008e0                __atexit_recursive_mutex
                0x00000000200008e4                . = ALIGN (0x4)
                0x00000000200008e4                __data_end__ = .

.jcr            0x00000000200008e4        0x4 load address 0x000000000000a2b8
 .jcr           0x00000000200008e4        0x0 /home/odougs/bin/ti/ccsv7/tools/compiler/gcc-arm-none-eabi-6-2017-q1-update/bin/../lib/gcc/arm-none-eabi/6.3.1/thumb/v7e-m/fpv4-sp/hard/crtbegin.o
 .jcr           0x00000000200008e4        0x4 /home/odougs/bin/ti/ccsv7/tools/compiler/gcc-arm-none-eabi-6-2017-q1-update/bin/../lib/gcc/arm-none-eabi/6.3.1/thumb/v7e-m/fpv4-sp/hard/crtend.o

.igot.plt       0x00000000200008e8        0x0 load address 0x000000000000a2bc
 .igot.plt      0x00000000200008e8        0x0 /home/odougs/bin/ti/ccsv7/tools/compiler/gcc-arm-none-eabi-6-2017-q1-update/bin/../lib/gcc/arm-none-eabi/6.3.1/thumb/v7e-m/fpv4-sp/hard/crtbegin.o

vtable          0x0000000020000c00      0x400 load address 0x000000000000a2bc
                [!provide]                        PROVIDE (__start_vtable, .)
 vtable         0x0000000020000c00      0x400 /mnt/storage/project/2kwMotorController/firmware/Tivaware/driverlib/gcc/libdriver.a(interrupt.o)
                [!provide]                        PROVIDE (__stop_vtable, .)

.ARM.exidx      0x000000000000a6bc        0x8
                0x000000000000a6bc                __exidx_start = .
 *(.ARM.exidx* .gnu.linkonce.armexidx.*)
 .ARM.exidx     0x000000000000a6bc        0x8 /home/odougs/bin/ti/ccsv7/tools/compiler/gcc-arm-none-eabi-6-2017-q1-update/bin/../lib/gcc/arm-none-eabi/6.3.1/../../../../arm-none-eabi/lib/thumb/v7e-m/fpv4-sp/hard/crt0.o
                0x000000000000a6c4                __exidx_end = .

.ARM.extab      0x000000000000a6c4        0x0
 *(.ARM.extab* .gnu.linkonce.armextab.*)
 .ARM.extab     0x000000000000a6c4        0x0 /home/odougs/bin/ti/ccsv7/tools/compiler/gcc-arm-none-eabi-6-2017-q1-update/bin/../lib/gcc/arm-none-eabi/6.3.1/../../../../arm-none-eabi/lib/thumb/v7e-m/fpv4-sp/hard/crt0.o

.rel.dyn        0x000000000000a6c4        0x0
 .rel.iplt      0x000000000000a6c4        0x0 /home/odougs/bin/ti/ccsv7/tools/compiler/gcc-arm-none-eabi-6-2017-q1-update/bin/../lib/gcc/arm-none-eabi/6.3.1/thumb/v7e-m/fpv4-sp/hard/crtbegin.o

.bss            0x0000000020001000    0x3e458
                0x0000000020001000                __bss_start__ = .
 *(.shbss)
 *(.bss)
 .bss           0x0000000020001000        0x0 /home/odougs/bin/ti/ccsv7/tools/compiler/gcc-arm-none-eabi-6-2017-q1-update/bin/../lib/gcc/arm-none-eabi/6.3.1/thumb/v7e-m/fpv4-sp/hard/crti.o
 .bss           0x0000000020001000       0x1c /home/odougs/bin/ti/ccsv7/tools/compiler/gcc-arm-none-eabi-6-2017-q1-update/bin/../lib/gcc/arm-none-eabi/6.3.1/thumb/v7e-m/fpv4-sp/hard/crtbegin.o
 .bss           0x000000002000101c        0x0 /home/odougs/bin/ti/ccsv7/tools/compiler/gcc-arm-none-eabi-6-2017-q1-update/bin/../lib/gcc/arm-none-eabi/6.3.1/../../../../arm-none-eabi/lib/thumb/v7e-m/fpv4-sp/hard/crt0.o
 .bss           0x000000002000101c        0x0 ./startup.o
 .bss           0x000000002000101c        0x0 ./FreeRTOS/event_groups.o
 .bss           0x000000002000101c        0x0 ./FreeRTOS/heap_1.o
 .bss           0x000000002000101c        0x0 ./FreeRTOS/list.o
 .bss           0x000000002000101c        0x0 ./FreeRTOS/port.o
 .bss           0x000000002000101c        0x0 ./FreeRTOS/queue.o
 .bss           0x000000002000101c        0x0 ./FreeRTOS/tasks.o
 .bss           0x000000002000101c        0x0 ./FreeRTOS/timers.o
 .bss           0x000000002000101c        0x0 ./source/can.o
 .bss           0x000000002000101c        0x0 ./source/control.o
 .bss           0x000000002000101c        0x0 ./source/debug.o
 .bss           0x000000002000101c        0x0 ./source/encoder.o
 .bss           0x000000002000101c        0x0 ./source/fir.o
 .bss           0x000000002000101c        0x0 ./source/logger.o
 .bss           0x000000002000101c        0x0 ./source/main.o
 .bss           0x000000002000101c        0x0 ./source/pinconfig.o
 .bss           0x000000002000101c        0x0 ./source/sensors.o
 .bss           0x000000002000101c        0x0 ./source/system.o
 .bss           0x000000002000101c        0x0 ./source/thermistor_lut.o
 .bss           0x000000002000101c        0x0 ./source/xprintf.o
 .bss           0x000000002000101c        0x0 /home/odougs/bin/ti/ccsv7/tools/compiler/gcc-arm-none-eabi-6-2017-q1-update/bin/../lib/gcc/arm-none-eabi/6.3.1/../../../../arm-none-eabi/lib/thumb/v7e-m/fpv4-sp/hard/libc.a(lib_a-calloc.o)
 .bss           0x000000002000101c        0x0 /home/odougs/bin/ti/ccsv7/tools/compiler/gcc-arm-none-eabi-6-2017-q1-update/bin/../lib/gcc/arm-none-eabi/6.3.1/../../../../arm-none-eabi/lib/thumb/v7e-m/fpv4-sp/hard/libc.a(lib_a-callocr.o)
 .bss           0x000000002000101c        0x0 /home/odougs/bin/ti/ccsv7/tools/compiler/gcc-arm-none-eabi-6-2017-q1-update/bin/../lib/gcc/arm-none-eabi/6.3.1/../../../../arm-none-eabi/lib/thumb/v7e-m/fpv4-sp/hard/libc.a(lib_a-exit.o)
 .bss           0x000000002000101c        0x0 /home/odougs/bin/ti/ccsv7/tools/compiler/gcc-arm-none-eabi-6-2017-q1-update/bin/../lib/gcc/arm-none-eabi/6.3.1/../../../../arm-none-eabi/lib/thumb/v7e-m/fpv4-sp/hard/libc.a(lib_a-impure.o)
 .bss           0x000000002000101c        0x0 /home/odougs/bin/ti/ccsv7/tools/compiler/gcc-arm-none-eabi-6-2017-q1-update/bin/../lib/gcc/arm-none-eabi/6.3.1/../../../../arm-none-eabi/lib/thumb/v7e-m/fpv4-sp/hard/libc.a(lib_a-init.o)
 .bss           0x000000002000101c        0x0 /home/odougs/bin/ti/ccsv7/tools/compiler/gcc-arm-none-eabi-6-2017-q1-update/bin/../lib/gcc/arm-none-eabi/6.3.1/../../../../arm-none-eabi/lib/thumb/v7e-m/fpv4-sp/hard/libc.a(lib_a-malloc.o)
 .bss           0x000000002000101c        0x0 /home/odougs/bin/ti/ccsv7/tools/compiler/gcc-arm-none-eabi-6-2017-q1-update/bin/../lib/gcc/arm-none-eabi/6.3.1/../../../../arm-none-eabi/lib/thumb/v7e-m/fpv4-sp/hard/libc.a(lib_a-mallocr.o)
 .bss           0x000000002000101c        0x0 /home/odougs/bin/ti/ccsv7/tools/compiler/gcc-arm-none-eabi-6-2017-q1-update/bin/../lib/gcc/arm-none-eabi/6.3.1/../../../../arm-none-eabi/lib/thumb/v7e-m/fpv4-sp/hard/libc.a(lib_a-memcpy.o)
 .bss           0x000000002000101c        0x0 /home/odougs/bin/ti/ccsv7/tools/compiler/gcc-arm-none-eabi-6-2017-q1-update/bin/../lib/gcc/arm-none-eabi/6.3.1/../../../../arm-none-eabi/lib/thumb/v7e-m/fpv4-sp/hard/libc.a(lib_a-memset.o)
 .bss           0x000000002000101c        0x0 /home/odougs/bin/ti/ccsv7/tools/compiler/gcc-arm-none-eabi-6-2017-q1-update/bin/../lib/gcc/arm-none-eabi/6.3.1/../../../../arm-none-eabi/lib/thumb/v7e-m/fpv4-sp/hard/libc.a(lib_a-mlock.o)
 .bss           0x000000002000101c        0x0 /home/odougs/bin/ti/ccsv7/tools/compiler/gcc-arm-none-eabi-6-2017-q1-update/bin/../lib/gcc/arm-none-eabi/6.3.1/../../../../arm-none-eabi/lib/thumb/v7e-m/fpv4-sp/hard/libc.a(lib_a-sbrkr.o)
 .bss           0x000000002000101c        0x0 /home/odougs/bin/ti/ccsv7/tools/compiler/gcc-arm-none-eabi-6-2017-q1-update/bin/../lib/gcc/arm-none-eabi/6.3.1/../../../../arm-none-eabi/lib/thumb/v7e-m/fpv4-sp/hard/libc.a(lib_a-__call_atexit.o)
 .bss           0x000000002000101c        0x0 /home/odougs/bin/ti/ccsv7/tools/compiler/gcc-arm-none-eabi-6-2017-q1-update/bin/../lib/gcc/arm-none-eabi/6.3.1/../../../../arm-none-eabi/lib/thumb/v7e-m/fpv4-sp/hard/libc.a(lib_a-atexit.o)
 .bss           0x000000002000101c        0x0 /home/odougs/bin/ti/ccsv7/tools/compiler/gcc-arm-none-eabi-6-2017-q1-update/bin/../lib/gcc/arm-none-eabi/6.3.1/../../../../arm-none-eabi/lib/thumb/v7e-m/fpv4-sp/hard/libc.a(lib_a-fini.o)
 .bss           0x000000002000101c        0x0 /home/odougs/bin/ti/ccsv7/tools/compiler/gcc-arm-none-eabi-6-2017-q1-update/bin/../lib/gcc/arm-none-eabi/6.3.1/../../../../arm-none-eabi/lib/thumb/v7e-m/fpv4-sp/hard/libc.a(lib_a-freer.o)
 .bss           0x000000002000101c        0x0 /home/odougs/bin/ti/ccsv7/tools/compiler/gcc-arm-none-eabi-6-2017-q1-update/bin/../lib/gcc/arm-none-eabi/6.3.1/../../../../arm-none-eabi/lib/thumb/v7e-m/fpv4-sp/hard/libc.a(lib_a-lock.o)
 .bss           0x000000002000101c        0x0 /home/odougs/bin/ti/ccsv7/tools/compiler/gcc-arm-none-eabi-6-2017-q1-update/bin/../lib/gcc/arm-none-eabi/6.3.1/../../../../arm-none-eabi/lib/thumb/v7e-m/fpv4-sp/hard/libc.a(lib_a-reent.o)
 .bss           0x000000002000101c        0x0 /home/odougs/bin/ti/ccsv7/tools/compiler/gcc-arm-none-eabi-6-2017-q1-update/bin/../lib/gcc/arm-none-eabi/6.3.1/../../../../arm-none-eabi/lib/thumb/v7e-m/fpv4-sp/hard/libc.a(lib_a-__atexit.o)
 .bss           0x000000002000101c        0x0 /mnt/storage/project/2kwMotorController/firmware/Tivaware/driverlib/gcc/libdriver.a(adc.o)
 .bss           0x000000002000101c        0x0 /mnt/storage/project/2kwMotorController/firmware/Tivaware/driverlib/gcc/libdriver.a(can.o)
 .bss           0x000000002000101c        0x0 /mnt/storage/project/2kwMotorController/firmware/Tivaware/driverlib/gcc/libdriver.a(gpio.o)
 .bss           0x000000002000101c        0x0 /mnt/storage/project/2kwMotorController/firmware/Tivaware/driverlib/gcc/libdriver.a(interrupt.o)
 .bss           0x000000002000101c        0x0 /mnt/storage/project/2kwMotorController/firmware/Tivaware/driverlib/gcc/libdriver.a(pwm.o)
 .bss           0x000000002000101c        0x0 /mnt/storage/project/2kwMotorController/firmware/Tivaware/driverlib/gcc/libdriver.a(qei.o)
 .bss           0x000000002000101c        0x0 /mnt/storage/project/2kwMotorController/firmware/Tivaware/driverlib/gcc/libdriver.a(sysctl.o)
 .bss           0x000000002000101c        0x0 /mnt/storage/project/2kwMotorController/firmware/Tivaware/driverlib/gcc/libdriver.a(timer.o)
 .bss           0x000000002000101c        0x0 /mnt/storage/project/2kwMotorController/firmware/Tivaware/driverlib/gcc/libdriver.a(uart.o)
 .bss           0x000000002000101c        0x0 /mnt/storage/project/2kwMotorController/firmware/Tivaware/driverlib/gcc/libdriver.a(udma.o)
 .bss           0x000000002000101c        0x0 /mnt/storage/project/2kwMotorController/firmware/Tivaware/driverlib/gcc/libdriver.a(cpu.o)
 .bss           0x000000002000101c        0x0 /home/odougs/bin/ti/ccsv7/tools/compiler/gcc-arm-none-eabi-6-2017-q1-update/bin/../lib/gcc/arm-none-eabi/6.3.1/../../../../arm-none-eabi/lib/thumb/v7e-m/fpv4-sp/hard/libnosys.a(sbrk.o)
 .bss           0x000000002000101c        0x0 /home/odougs/bin/ti/ccsv7/tools/compiler/gcc-arm-none-eabi-6-2017-q1-update/bin/../lib/gcc/arm-none-eabi/6.3.1/../../../../arm-none-eabi/lib/thumb/v7e-m/fpv4-sp/hard/libnosys.a(_exit.o)
 .bss           0x000000002000101c        0x0 /home/odougs/bin/ti/ccsv7/tools/compiler/gcc-arm-none-eabi-6-2017-q1-update/bin/../lib/gcc/arm-none-eabi/6.3.1/thumb/v7e-m/fpv4-sp/hard/crtend.o
 .bss           0x000000002000101c        0x0 /home/odougs/bin/ti/ccsv7/tools/compiler/gcc-arm-none-eabi-6-2017-q1-update/bin/../lib/gcc/arm-none-eabi/6.3.1/thumb/v7e-m/fpv4-sp/hard/crtn.o
 *(.bss.*)
 .bss.pui32Stack
                0x000000002000101c      0x200 ./startup.o
 .bss.pucAlignedHeap.5968
                0x000000002000121c        0x4 ./FreeRTOS/heap_1.o
 .bss.ucHeap    0x0000000020001220    0x3d090 ./FreeRTOS/heap_1.o
 .bss.xNextFreeByte
                0x000000002003e2b0        0x4 ./FreeRTOS/heap_1.o
 .bss.ucMaxSysCallPriority
                0x000000002003e2b4        0x1 ./FreeRTOS/port.o
 *fill*         0x000000002003e2b5        0x3 
 .bss.ulMaxPRIGROUPValue
                0x000000002003e2b8        0x4 ./FreeRTOS/port.o
 .bss.pxCurrentTCB
                0x000000002003e2bc        0x4 ./FreeRTOS/tasks.o
                0x000000002003e2bc                pxCurrentTCB
 .bss.pxDelayedTaskList
                0x000000002003e2c0        0x4 ./FreeRTOS/tasks.o
 .bss.pxOverflowDelayedTaskList
                0x000000002003e2c4        0x4 ./FreeRTOS/tasks.o
 .bss.pxReadyTasksLists
                0x000000002003e2c8      0x140 ./FreeRTOS/tasks.o
 .bss.uxCurrentNumberOfTasks
                0x000000002003e408        0x4 ./FreeRTOS/tasks.o
 .bss.uxDeletedTasksWaitingCleanUp
                0x000000002003e40c        0x4 ./FreeRTOS/tasks.o
 .bss.uxPendedTicks
                0x000000002003e410        0x4 ./FreeRTOS/tasks.o
 .bss.uxSchedulerSuspended
                0x000000002003e414        0x4 ./FreeRTOS/tasks.o
 .bss.uxTaskNumber
                0x000000002003e418        0x4 ./FreeRTOS/tasks.o
 .bss.uxTopReadyPriority
                0x000000002003e41c        0x4 ./FreeRTOS/tasks.o
 .bss.xDelayedTaskList1
                0x000000002003e420       0x14 ./FreeRTOS/tasks.o
 .bss.xDelayedTaskList2
                0x000000002003e434       0x14 ./FreeRTOS/tasks.o
 .bss.xIdleTaskHandle
                0x000000002003e448        0x4 ./FreeRTOS/tasks.o
 .bss.xNextTaskUnblockTime
                0x000000002003e44c        0x4 ./FreeRTOS/tasks.o
 .bss.xNumOfOverflows
                0x000000002003e450        0x4 ./FreeRTOS/tasks.o
 .bss.xPendingReadyList
                0x000000002003e454       0x14 ./FreeRTOS/tasks.o
 .bss.xSchedulerRunning
                0x000000002003e468        0x4 ./FreeRTOS/tasks.o
 .bss.xSuspendedTaskList
                0x000000002003e46c       0x14 ./FreeRTOS/tasks.o
 .bss.xTasksWaitingTermination
                0x000000002003e480       0x14 ./FreeRTOS/tasks.o
 .bss.xTickCount
                0x000000002003e494        0x4 ./FreeRTOS/tasks.o
 .bss.xYieldPending
                0x000000002003e498        0x4 ./FreeRTOS/tasks.o
 .bss.avg_current.6251
                0x000000002003e49c        0x4 ./source/control.o
 .bss.current_pid
                0x000000002003e4a0       0x18 ./source/control.o
 .bss.drive_mode
                0x000000002003e4b8        0x4 ./source/control.o
 .bss.hbridge_fan_temp
                0x000000002003e4bc        0x4 ./source/control.o
 .bss.hbridge_shutdown_temp
                0x000000002003e4c0        0x4 ./source/control.o
 .bss.max_avg_current
                0x000000002003e4c4        0x4 ./source/control.o
 .bss.max_peak_current
                0x000000002003e4c8        0x4 ./source/control.o
 .bss.motor_shutdown_temp
                0x000000002003e4cc        0x4 ./source/control.o
 .bss.prev_control_mode.6261
                0x000000002003e4d0        0x4 ./source/control.o
 .bss.prev_system_state.6266
                0x000000002003e4d4        0x4 ./source/control.o
 .bss.target_current.6278
                0x000000002003e4d8        0x4 ./source/control.o
 .bss.velocity_pid
                0x000000002003e4dc       0x18 ./source/control.o
 .bss.buffer.6137
                0x000000002003e4f4       0x28 ./source/encoder.o
 .bss.encoder_ppr
                0x000000002003e51c        0x4 ./source/encoder.o
 .bss.index.6138
                0x000000002003e520        0x4 ./source/encoder.o
 .bss.motor_velocity_rads
                0x000000002003e524        0x4 ./source/encoder.o
 .bss.velocity_updated
                0x000000002003e528        0x1 ./source/encoder.o
 *fill*         0x000000002003e529        0x3 
 .bss.buf_head  0x000000002003e52c        0x4 ./source/logger.o
 .bss.buf_tail  0x000000002003e530        0x4 ./source/logger.o
 .bss.tx_buffer
                0x000000002003e534      0x200 ./source/logger.o
 .bss.battery_voltage
                0x000000002003e734        0x4 ./source/sensors.o
 .bss.bus_voltage
                0x000000002003e738        0x4 ./source/sensors.o
 .bss.current_decimator
                0x000000002003e73c        0x4 ./source/sensors.o
 .bss.filt1_out.6457
                0x000000002003e740        0x4 ./source/sensors.o
 .bss.hbridge_temperature
                0x000000002003e744        0x4 ./source/sensors.o
 .bss.motor_current
                0x000000002003e748        0x4 ./source/sensors.o
 .bss.motor_temperature
                0x000000002003e74c        0x4 ./source/sensors.o
 .bss.sysclk_freq
                0x000000002003e750        0x4 ./source/system.o
 .bss.outptr    0x000000002003e754        0x4 ./source/xprintf.o
 .bss.__malloc_current_mallinfo
                0x000000002003e758       0x28 /home/odougs/bin/ti/ccsv7/tools/compiler/gcc-arm-none-eabi-6-2017-q1-update/bin/../lib/gcc/arm-none-eabi/6.3.1/../../../../arm-none-eabi/lib/thumb/v7e-m/fpv4-sp/hard/libc.a(lib_a-mallocr.o)
                0x000000002003e758                __malloc_current_mallinfo
 .bss.__malloc_max_sbrked_mem
                0x000000002003e780        0x4 /home/odougs/bin/ti/ccsv7/tools/compiler/gcc-arm-none-eabi-6-2017-q1-update/bin/../lib/gcc/arm-none-eabi/6.3.1/../../../../arm-none-eabi/lib/thumb/v7e-m/fpv4-sp/hard/libc.a(lib_a-mallocr.o)
                0x000000002003e780                __malloc_max_sbrked_mem
 .bss.__malloc_max_total_mem
                0x000000002003e784        0x4 /home/odougs/bin/ti/ccsv7/tools/compiler/gcc-arm-none-eabi-6-2017-q1-update/bin/../lib/gcc/arm-none-eabi/6.3.1/../../../../arm-none-eabi/lib/thumb/v7e-m/fpv4-sp/hard/libc.a(lib_a-mallocr.o)
                0x000000002003e784                __malloc_max_total_mem
 .bss.__malloc_top_pad
                0x000000002003e788        0x4 /home/odougs/bin/ti/ccsv7/tools/compiler/gcc-arm-none-eabi-6-2017-q1-update/bin/../lib/gcc/arm-none-eabi/6.3.1/../../../../arm-none-eabi/lib/thumb/v7e-m/fpv4-sp/hard/libc.a(lib_a-mallocr.o)
                0x000000002003e788                __malloc_top_pad
 .bss.g_pui8OversampleFactor
                0x000000002003e78c        0x6 /mnt/storage/project/2kwMotorController/firmware/Tivaware/driverlib/gcc/libdriver.a(adc.o)
 *fill*         0x000000002003e792        0x2 
 .bss.heap_end.5239
                0x000000002003e794        0x4 /home/odougs/bin/ti/ccsv7/tools/compiler/gcc-arm-none-eabi-6-2017-q1-update/bin/../lib/gcc/arm-none-eabi/6.3.1/../../../../arm-none-eabi/lib/thumb/v7e-m/fpv4-sp/hard/libnosys.a(sbrk.o)
 *(COMMON)
 COMMON         0x000000002003e798       0x50 ./FreeRTOS/queue.o
                0x000000002003e798                xQueueRegistry
 COMMON         0x000000002003e7e8        0x8 ./source/can.o
                0x000000002003e7e8                can_tx_queue
                0x000000002003e7ec                can_rx_queue
 COMMON         0x000000002003e7f0        0x4 ./source/control.o
                0x000000002003e7f0                pwm_period_ticks
 COMMON         0x000000002003e7f4        0x4 ./source/logger.o
                0x000000002003e7f4                log_message_queue
 COMMON         0x000000002003e7f8       0x20 ./source/main.o
                0x000000002003e7f8                poll_task_handle
                0x000000002003e7fc                encoder_task_handle
                0x000000002003e800                rt_sensor_task_handle
                0x000000002003e804                control_task_handle
                0x000000002003e808                system_task_handle
                0x000000002003e80c                can_task_handle
                0x000000002003e810                led_task_handle
                0x000000002003e814                logger_task_handle
 *fill*         0x000000002003e818      0x3e8 
 COMMON         0x000000002003ec00      0x800 ./source/sensors.o
                0x000000002003ec00                rt_adc_buffer
                0x000000002003ec10                ls_adc_buffer
                0x000000002003f000                uDMA_control_table
 COMMON         0x000000002003f400       0x28 ./source/system.o
                0x000000002003f400                cmdbuf
 COMMON         0x000000002003f428        0x8 ./source/xprintf.o
                0x000000002003f428                xfunc_in
                0x000000002003f42c                xfunc_out
 COMMON         0x000000002003f430       0x21 /home/odougs/bin/ti/ccsv7/tools/compiler/gcc-arm-none-eabi-6-2017-q1-update/bin/../lib/gcc/arm-none-eabi/6.3.1/../../../../arm-none-eabi/lib/thumb/v7e-m/fpv4-sp/hard/libc.a(lib_a-lock.o)
                0x000000002003f430                __lock___atexit_recursive_mutex
                0x000000002003f434                __lock___arc4random_mutex
                0x000000002003f438                __lock___env_recursive_mutex
                0x000000002003f43c                __lock___sinit_recursive_mutex
                0x000000002003f440                __lock___malloc_recursive_mutex
                0x000000002003f444                __lock___at_quick_exit_mutex
                0x000000002003f448                __lock___dd_hash_mutex
                0x000000002003f44c                __lock___tz_mutex
                0x000000002003f450                __lock___sfp_recursive_mutex
 *fill*         0x000000002003f451        0x3 
 COMMON         0x000000002003f454        0x4 /home/odougs/bin/ti/ccsv7/tools/compiler/gcc-arm-none-eabi-6-2017-q1-update/bin/../lib/gcc/arm-none-eabi/6.3.1/../../../../arm-none-eabi/lib/thumb/v7e-m/fpv4-sp/hard/libc.a(lib_a-reent.o)
                0x000000002003f454                errno
                0x000000002003f458                . = ALIGN (0x4)
                0x000000002003f458                __bss_end__ = .

.heap           0x000000002003f458        0x0
                0x000000002003f458                __heap_start__ = .
                0x000000002003f458                end = __heap_start__
                0x000000002003f458                _end = end
                0x000000002003f458                __end = end
 *(.heap)
                0x000000002003f458                __heap_end__ = .
                0x000000002003f458                __HeapLimit = __heap_end__

.stack          0x000000002003f458        0x0
                0x000000002003f458                _stack = .
                0x000000002003f458                __stack = .
 *(.stack)
START GROUP
LOAD /home/odougs/bin/ti/ccsv7/tools/compiler/gcc-arm-none-eabi-6-2017-q1-update/bin/../lib/gcc/arm-none-eabi/6.3.1/../../../../arm-none-eabi/lib/thumb/v7e-m/fpv4-sp/hard/libc.a
LOAD /mnt/storage/project/2kwMotorController/firmware/Tivaware/driverlib/gcc/libdriver.a
END GROUP
START GROUP
LOAD /home/odougs/bin/ti/ccsv7/tools/compiler/gcc-arm-none-eabi-6-2017-q1-update/bin/../lib/gcc/arm-none-eabi/6.3.1/thumb/v7e-m/fpv4-sp/hard/libgcc.a
LOAD /home/odougs/bin/ti/ccsv7/tools/compiler/gcc-arm-none-eabi-6-2017-q1-update/bin/../lib/gcc/arm-none-eabi/6.3.1/../../../../arm-none-eabi/lib/thumb/v7e-m/fpv4-sp/hard/libg.a
LOAD /home/odougs/bin/ti/ccsv7/tools/compiler/gcc-arm-none-eabi-6-2017-q1-update/bin/../lib/gcc/arm-none-eabi/6.3.1/../../../../arm-none-eabi/lib/thumb/v7e-m/fpv4-sp/hard/libc.a
END GROUP
START GROUP
LOAD /home/odougs/bin/ti/ccsv7/tools/compiler/gcc-arm-none-eabi-6-2017-q1-update/bin/../lib/gcc/arm-none-eabi/6.3.1/thumb/v7e-m/fpv4-sp/hard/libgcc.a
LOAD /home/odougs/bin/ti/ccsv7/tools/compiler/gcc-arm-none-eabi-6-2017-q1-update/bin/../lib/gcc/arm-none-eabi/6.3.1/../../../../arm-none-eabi/lib/thumb/v7e-m/fpv4-sp/hard/libc.a
LOAD /home/odougs/bin/ti/ccsv7/tools/compiler/gcc-arm-none-eabi-6-2017-q1-update/bin/../lib/gcc/arm-none-eabi/6.3.1/../../../../arm-none-eabi/lib/thumb/v7e-m/fpv4-sp/hard/libnosys.a
END GROUP
LOAD /home/odougs/bin/ti/ccsv7/tools/compiler/gcc-arm-none-eabi-6-2017-q1-update/bin/../lib/gcc/arm-none-eabi/6.3.1/thumb/v7e-m/fpv4-sp/hard/crtend.o
LOAD /home/odougs/bin/ti/ccsv7/tools/compiler/gcc-arm-none-eabi-6-2017-q1-update/bin/../lib/gcc/arm-none-eabi/6.3.1/thumb/v7e-m/fpv4-sp/hard/crtn.o
OUTPUT(MotorController.out elf32-littlearm)

.ARM.attributes
                0x0000000000000000       0x30
 .ARM.attributes
                0x0000000000000000       0x22 /home/odougs/bin/ti/ccsv7/tools/compiler/gcc-arm-none-eabi-6-2017-q1-update/bin/../lib/gcc/arm-none-eabi/6.3.1/thumb/v7e-m/fpv4-sp/hard/crti.o
 .ARM.attributes
                0x0000000000000022       0x34 /home/odougs/bin/ti/ccsv7/tools/compiler/gcc-arm-none-eabi-6-2017-q1-update/bin/../lib/gcc/arm-none-eabi/6.3.1/thumb/v7e-m/fpv4-sp/hard/crtbegin.o
 .ARM.attributes
                0x0000000000000056       0x20 /home/odougs/bin/ti/ccsv7/tools/compiler/gcc-arm-none-eabi-6-2017-q1-update/bin/../lib/gcc/arm-none-eabi/6.3.1/../../../../arm-none-eabi/lib/thumb/v7e-m/fpv4-sp/hard/crt0.o
 .ARM.attributes
                0x0000000000000076       0x39 ./startup.o
 .ARM.attributes
                0x00000000000000af       0x39 ./FreeRTOS/event_groups.o
 .ARM.attributes
                0x00000000000000e8       0x39 ./FreeRTOS/heap_1.o
 .ARM.attributes
                0x0000000000000121       0x39 ./FreeRTOS/list.o
 .ARM.attributes
                0x000000000000015a       0x39 ./FreeRTOS/port.o
 .ARM.attributes
                0x0000000000000193       0x39 ./FreeRTOS/queue.o
 .ARM.attributes
                0x00000000000001cc       0x39 ./FreeRTOS/tasks.o
 .ARM.attributes
                0x0000000000000205       0x39 ./FreeRTOS/timers.o
 .ARM.attributes
                0x000000000000023e       0x39 ./source/can.o
 .ARM.attributes
                0x0000000000000277       0x39 ./source/control.o
 .ARM.attributes
                0x00000000000002b0       0x39 ./source/debug.o
 .ARM.attributes
                0x00000000000002e9       0x39 ./source/encoder.o
 .ARM.attributes
                0x0000000000000322       0x39 ./source/fir.o
 .ARM.attributes
                0x000000000000035b       0x39 ./source/logger.o
 .ARM.attributes
                0x0000000000000394       0x39 ./source/main.o
 .ARM.attributes
                0x00000000000003cd       0x39 ./source/pinconfig.o
 .ARM.attributes
                0x0000000000000406       0x39 ./source/sensors.o
 .ARM.attributes
                0x000000000000043f       0x39 ./source/system.o
 .ARM.attributes
                0x0000000000000478       0x39 ./source/thermistor_lut.o
 .ARM.attributes
                0x00000000000004b1       0x39 ./source/xprintf.o
 .ARM.attributes
                0x00000000000004ea       0x34 /home/odougs/bin/ti/ccsv7/tools/compiler/gcc-arm-none-eabi-6-2017-q1-update/bin/../lib/gcc/arm-none-eabi/6.3.1/../../../../arm-none-eabi/lib/thumb/v7e-m/fpv4-sp/hard/libc.a(lib_a-calloc.o)
 .ARM.attributes
                0x000000000000051e       0x34 /home/odougs/bin/ti/ccsv7/tools/compiler/gcc-arm-none-eabi-6-2017-q1-update/bin/../lib/gcc/arm-none-eabi/6.3.1/../../../../arm-none-eabi/lib/thumb/v7e-m/fpv4-sp/hard/libc.a(lib_a-callocr.o)
 .ARM.attributes
                0x0000000000000552       0x34 /home/odougs/bin/ti/ccsv7/tools/compiler/gcc-arm-none-eabi-6-2017-q1-update/bin/../lib/gcc/arm-none-eabi/6.3.1/../../../../arm-none-eabi/lib/thumb/v7e-m/fpv4-sp/hard/libc.a(lib_a-exit.o)
 .ARM.attributes
                0x0000000000000586       0x34 /home/odougs/bin/ti/ccsv7/tools/compiler/gcc-arm-none-eabi-6-2017-q1-update/bin/../lib/gcc/arm-none-eabi/6.3.1/../../../../arm-none-eabi/lib/thumb/v7e-m/fpv4-sp/hard/libc.a(lib_a-impure.o)
 .ARM.attributes
                0x00000000000005ba       0x34 /home/odougs/bin/ti/ccsv7/tools/compiler/gcc-arm-none-eabi-6-2017-q1-update/bin/../lib/gcc/arm-none-eabi/6.3.1/../../../../arm-none-eabi/lib/thumb/v7e-m/fpv4-sp/hard/libc.a(lib_a-init.o)
 .ARM.attributes
                0x00000000000005ee       0x34 /home/odougs/bin/ti/ccsv7/tools/compiler/gcc-arm-none-eabi-6-2017-q1-update/bin/../lib/gcc/arm-none-eabi/6.3.1/../../../../arm-none-eabi/lib/thumb/v7e-m/fpv4-sp/hard/libc.a(lib_a-malloc.o)
 .ARM.attributes
                0x0000000000000622       0x34 /home/odougs/bin/ti/ccsv7/tools/compiler/gcc-arm-none-eabi-6-2017-q1-update/bin/../lib/gcc/arm-none-eabi/6.3.1/../../../../arm-none-eabi/lib/thumb/v7e-m/fpv4-sp/hard/libc.a(lib_a-mallocr.o)
 .ARM.attributes
                0x0000000000000656       0x20 /home/odougs/bin/ti/ccsv7/tools/compiler/gcc-arm-none-eabi-6-2017-q1-update/bin/../lib/gcc/arm-none-eabi/6.3.1/../../../../arm-none-eabi/lib/thumb/v7e-m/fpv4-sp/hard/libc.a(lib_a-memcpy.o)
 .ARM.attributes
                0x0000000000000676       0x34 /home/odougs/bin/ti/ccsv7/tools/compiler/gcc-arm-none-eabi-6-2017-q1-update/bin/../lib/gcc/arm-none-eabi/6.3.1/../../../../arm-none-eabi/lib/thumb/v7e-m/fpv4-sp/hard/libc.a(lib_a-memset.o)
 .ARM.attributes
                0x00000000000006aa       0x34 /home/odougs/bin/ti/ccsv7/tools/compiler/gcc-arm-none-eabi-6-2017-q1-update/bin/../lib/gcc/arm-none-eabi/6.3.1/../../../../arm-none-eabi/lib/thumb/v7e-m/fpv4-sp/hard/libc.a(lib_a-mlock.o)
 .ARM.attributes
                0x00000000000006de       0x34 /home/odougs/bin/ti/ccsv7/tools/compiler/gcc-arm-none-eabi-6-2017-q1-update/bin/../lib/gcc/arm-none-eabi/6.3.1/../../../../arm-none-eabi/lib/thumb/v7e-m/fpv4-sp/hard/libc.a(lib_a-sbrkr.o)
 .ARM.attributes
                0x0000000000000712       0x34 /home/odougs/bin/ti/ccsv7/tools/compiler/gcc-arm-none-eabi-6-2017-q1-update/bin/../lib/gcc/arm-none-eabi/6.3.1/../../../../arm-none-eabi/lib/thumb/v7e-m/fpv4-sp/hard/libc.a(lib_a-__call_atexit.o)
 .ARM.attributes
                0x0000000000000746       0x34 /home/odougs/bin/ti/ccsv7/tools/compiler/gcc-arm-none-eabi-6-2017-q1-update/bin/../lib/gcc/arm-none-eabi/6.3.1/../../../../arm-none-eabi/lib/thumb/v7e-m/fpv4-sp/hard/libc.a(lib_a-atexit.o)
 .ARM.attributes
                0x000000000000077a       0x34 /home/odougs/bin/ti/ccsv7/tools/compiler/gcc-arm-none-eabi-6-2017-q1-update/bin/../lib/gcc/arm-none-eabi/6.3.1/../../../../arm-none-eabi/lib/thumb/v7e-m/fpv4-sp/hard/libc.a(lib_a-fini.o)
 .ARM.attributes
                0x00000000000007ae       0x34 /home/odougs/bin/ti/ccsv7/tools/compiler/gcc-arm-none-eabi-6-2017-q1-update/bin/../lib/gcc/arm-none-eabi/6.3.1/../../../../arm-none-eabi/lib/thumb/v7e-m/fpv4-sp/hard/libc.a(lib_a-freer.o)
 .ARM.attributes
                0x00000000000007e2       0x34 /home/odougs/bin/ti/ccsv7/tools/compiler/gcc-arm-none-eabi-6-2017-q1-update/bin/../lib/gcc/arm-none-eabi/6.3.1/../../../../arm-none-eabi/lib/thumb/v7e-m/fpv4-sp/hard/libc.a(lib_a-lock.o)
 .ARM.attributes
                0x0000000000000816       0x34 /home/odougs/bin/ti/ccsv7/tools/compiler/gcc-arm-none-eabi-6-2017-q1-update/bin/../lib/gcc/arm-none-eabi/6.3.1/../../../../arm-none-eabi/lib/thumb/v7e-m/fpv4-sp/hard/libc.a(lib_a-reent.o)
 .ARM.attributes
                0x000000000000084a       0x34 /home/odougs/bin/ti/ccsv7/tools/compiler/gcc-arm-none-eabi-6-2017-q1-update/bin/../lib/gcc/arm-none-eabi/6.3.1/../../../../arm-none-eabi/lib/thumb/v7e-m/fpv4-sp/hard/libc.a(lib_a-__atexit.o)
 .ARM.attributes
                0x000000000000087e       0x3b /mnt/storage/project/2kwMotorController/firmware/Tivaware/driverlib/gcc/libdriver.a(adc.o)
 .ARM.attributes
                0x00000000000008b9       0x3b /mnt/storage/project/2kwMotorController/firmware/Tivaware/driverlib/gcc/libdriver.a(can.o)
 .ARM.attributes
                0x00000000000008f4       0x3b /mnt/storage/project/2kwMotorController/firmware/Tivaware/driverlib/gcc/libdriver.a(gpio.o)
 .ARM.attributes
                0x000000000000092f       0x3b /mnt/storage/project/2kwMotorController/firmware/Tivaware/driverlib/gcc/libdriver.a(interrupt.o)
 .ARM.attributes
                0x000000000000096a       0x3b /mnt/storage/project/2kwMotorController/firmware/Tivaware/driverlib/gcc/libdriver.a(pwm.o)
 .ARM.attributes
                0x00000000000009a5       0x3b /mnt/storage/project/2kwMotorController/firmware/Tivaware/driverlib/gcc/libdriver.a(qei.o)
 .ARM.attributes
                0x00000000000009e0       0x3b /mnt/storage/project/2kwMotorController/firmware/Tivaware/driverlib/gcc/libdriver.a(sysctl.o)
 .ARM.attributes
                0x0000000000000a1b       0x3b /mnt/storage/project/2kwMotorController/firmware/Tivaware/driverlib/gcc/libdriver.a(timer.o)
 .ARM.attributes
                0x0000000000000a56       0x3b /mnt/storage/project/2kwMotorController/firmware/Tivaware/driverlib/gcc/libdriver.a(uart.o)
 .ARM.attributes
                0x0000000000000a91       0x3b /mnt/storage/project/2kwMotorController/firmware/Tivaware/driverlib/gcc/libdriver.a(udma.o)
 .ARM.attributes
                0x0000000000000acc       0x3b /mnt/storage/project/2kwMotorController/firmware/Tivaware/driverlib/gcc/libdriver.a(cpu.o)
 .ARM.attributes
                0x0000000000000b07       0x34 /home/odougs/bin/ti/ccsv7/tools/compiler/gcc-arm-none-eabi-6-2017-q1-update/bin/../lib/gcc/arm-none-eabi/6.3.1/../../../../arm-none-eabi/lib/thumb/v7e-m/fpv4-sp/hard/libnosys.a(sbrk.o)
 .ARM.attributes
                0x0000000000000b3b       0x34 /home/odougs/bin/ti/ccsv7/tools/compiler/gcc-arm-none-eabi-6-2017-q1-update/bin/../lib/gcc/arm-none-eabi/6.3.1/../../../../arm-none-eabi/lib/thumb/v7e-m/fpv4-sp/hard/libnosys.a(_exit.o)
 .ARM.attributes
                0x0000000000000b6f       0x34 /home/odougs/bin/ti/ccsv7/tools/compiler/gcc-arm-none-eabi-6-2017-q1-update/bin/../lib/gcc/arm-none-eabi/6.3.1/thumb/v7e-m/fpv4-sp/hard/crtend.o
 .ARM.attributes
                0x0000000000000ba3       0x22 /home/odougs/bin/ti/ccsv7/tools/compiler/gcc-arm-none-eabi-6-2017-q1-update/bin/../lib/gcc/arm-none-eabi/6.3.1/thumb/v7e-m/fpv4-sp/hard/crtn.o

.comment        0x0000000000000000       0xef
 .comment       0x0000000000000000       0x7f ./startup.o
                                         0x80 (size before relaxing)
 .comment       0x000000000000007f       0x80 ./FreeRTOS/event_groups.o
 .comment       0x000000000000007f       0x80 ./FreeRTOS/heap_1.o
 .comment       0x000000000000007f       0x80 ./FreeRTOS/list.o
 .comment       0x000000000000007f       0x80 ./FreeRTOS/port.o
 .comment       0x000000000000007f       0x80 ./FreeRTOS/queue.o
 .comment       0x000000000000007f       0x80 ./FreeRTOS/tasks.o
 .comment       0x000000000000007f       0x80 ./FreeRTOS/timers.o
 .comment       0x000000000000007f       0x80 ./source/can.o
 .comment       0x000000000000007f       0x80 ./source/control.o
 .comment       0x000000000000007f       0x80 ./source/debug.o
 .comment       0x000000000000007f       0x80 ./source/encoder.o
 .comment       0x000000000000007f       0x80 ./source/fir.o
 .comment       0x000000000000007f       0x80 ./source/logger.o
 .comment       0x000000000000007f       0x80 ./source/main.o
 .comment       0x000000000000007f       0x80 ./source/pinconfig.o
 .comment       0x000000000000007f       0x80 ./source/sensors.o
 .comment       0x000000000000007f       0x80 ./source/system.o
 .comment       0x000000000000007f       0x80 ./source/thermistor_lut.o
 .comment       0x000000000000007f       0x80 ./source/xprintf.o
 .comment       0x000000000000007f       0x70 /mnt/storage/project/2kwMotorController/firmware/Tivaware/driverlib/gcc/libdriver.a(adc.o)
                                         0x71 (size before relaxing)
 .comment       0x00000000000000ef       0x71 /mnt/storage/project/2kwMotorController/firmware/Tivaware/driverlib/gcc/libdriver.a(can.o)
 .comment       0x00000000000000ef       0x71 /mnt/storage/project/2kwMotorController/firmware/Tivaware/driverlib/gcc/libdriver.a(gpio.o)
 .comment       0x00000000000000ef       0x71 /mnt/storage/project/2kwMotorController/firmware/Tivaware/driverlib/gcc/libdriver.a(interrupt.o)
 .comment       0x00000000000000ef       0x71 /mnt/storage/project/2kwMotorController/firmware/Tivaware/driverlib/gcc/libdriver.a(pwm.o)
 .comment       0x00000000000000ef       0x71 /mnt/storage/project/2kwMotorController/firmware/Tivaware/driverlib/gcc/libdriver.a(qei.o)
 .comment       0x00000000000000ef       0x71 /mnt/storage/project/2kwMotorController/firmware/Tivaware/driverlib/gcc/libdriver.a(sysctl.o)
 .comment       0x00000000000000ef       0x71 /mnt/storage/project/2kwMotorController/firmware/Tivaware/driverlib/gcc/libdriver.a(timer.o)
 .comment       0x00000000000000ef       0x71 /mnt/storage/project/2kwMotorController/firmware/Tivaware/driverlib/gcc/libdriver.a(uart.o)
 .comment       0x00000000000000ef       0x71 /mnt/storage/project/2kwMotorController/firmware/Tivaware/driverlib/gcc/libdriver.a(udma.o)
 .comment       0x00000000000000ef       0x71 /mnt/storage/project/2kwMotorController/firmware/Tivaware/driverlib/gcc/libdriver.a(cpu.o)

.debug_info     0x0000000000000000     0xd486
 .debug_info    0x0000000000000000      0x251 ./startup.o
 .debug_info    0x0000000000000251     0x1261 ./FreeRTOS/event_groups.o
 .debug_info    0x00000000000014b2      0x9dd ./FreeRTOS/heap_1.o
 .debug_info    0x0000000000001e8f      0xac4 ./FreeRTOS/list.o
 .debug_info    0x0000000000002953      0x4e0 ./FreeRTOS/port.o
 .debug_info    0x0000000000002e33     0x1c73 ./FreeRTOS/queue.o
 .debug_info    0x0000000000004aa6     0x2b45 ./FreeRTOS/tasks.o
 .debug_info    0x00000000000075eb      0x896 ./FreeRTOS/timers.o
 .debug_info    0x0000000000007e81      0xd33 ./source/can.o
 .debug_info    0x0000000000008bb4      0xaac ./source/control.o
 .debug_info    0x0000000000009660      0x1bf ./source/debug.o
 .debug_info    0x000000000000981f      0x2f9 ./source/encoder.o
 .debug_info    0x0000000000009b18      0x9d7 ./source/fir.o
 .debug_info    0x000000000000a4ef      0x545 ./source/logger.o
 .debug_info    0x000000000000aa34      0xc5e ./source/main.o
 .debug_info    0x000000000000b692       0xbd ./source/pinconfig.o
 .debug_info    0x000000000000b74f      0x49e ./source/sensors.o
 .debug_info    0x000000000000bbed     0x11a2 ./source/system.o
 .debug_info    0x000000000000cd8f      0x18d ./source/thermistor_lut.o
 .debug_info    0x000000000000cf1c      0x56a ./source/xprintf.o

.debug_abbrev   0x0000000000000000     0x2c44
 .debug_abbrev  0x0000000000000000      0x128 ./startup.o
 .debug_abbrev  0x0000000000000128      0x332 ./FreeRTOS/event_groups.o
 .debug_abbrev  0x000000000000045a      0x258 ./FreeRTOS/heap_1.o
 .debug_abbrev  0x00000000000006b2      0x1fd ./FreeRTOS/list.o
 .debug_abbrev  0x00000000000008af      0x1ca ./FreeRTOS/port.o
 .debug_abbrev  0x0000000000000a79      0x397 ./FreeRTOS/queue.o
 .debug_abbrev  0x0000000000000e10      0x422 ./FreeRTOS/tasks.o
 .debug_abbrev  0x0000000000001232      0x178 ./FreeRTOS/timers.o
 .debug_abbrev  0x00000000000013aa      0x2ee ./source/can.o
 .debug_abbrev  0x0000000000001698      0x2cf ./source/control.o
 .debug_abbrev  0x0000000000001967      0x102 ./source/debug.o
 .debug_abbrev  0x0000000000001a69      0x164 ./source/encoder.o
 .debug_abbrev  0x0000000000001bcd      0x1fc ./source/fir.o
 .debug_abbrev  0x0000000000001dc9      0x285 ./source/logger.o
 .debug_abbrev  0x000000000000204e      0x287 ./source/main.o
 .debug_abbrev  0x00000000000022d5       0x4c ./source/pinconfig.o
 .debug_abbrev  0x0000000000002321      0x222 ./source/sensors.o
 .debug_abbrev  0x0000000000002543      0x3f7 ./source/system.o
 .debug_abbrev  0x000000000000293a       0xd7 ./source/thermistor_lut.o
 .debug_abbrev  0x0000000000002a11      0x233 ./source/xprintf.o

.debug_loc      0x0000000000000000     0x3fa6
 .debug_loc     0x0000000000000000       0x31 ./startup.o
 .debug_loc     0x0000000000000031      0x5e4 ./FreeRTOS/event_groups.o
 .debug_loc     0x0000000000000615       0x47 ./FreeRTOS/heap_1.o
 .debug_loc     0x000000000000065c       0x5b ./FreeRTOS/list.o
 .debug_loc     0x00000000000006b7       0x44 ./FreeRTOS/port.o
 .debug_loc     0x00000000000006fb      0xc04 ./FreeRTOS/queue.o
 .debug_loc     0x00000000000012ff     0x1566 ./FreeRTOS/tasks.o
 .debug_loc     0x0000000000002865       0xca ./source/can.o
 .debug_loc     0x000000000000292f      0x4dd ./source/control.o
 .debug_loc     0x0000000000002e0c      0x116 ./source/debug.o
 .debug_loc     0x0000000000002f22       0xd2 ./source/encoder.o
 .debug_loc     0x0000000000002ff4      0x10f ./source/fir.o
 .debug_loc     0x0000000000003103      0x2a0 ./source/logger.o
 .debug_loc     0x00000000000033a3       0x80 ./source/main.o
 .debug_loc     0x0000000000003423       0x40 ./source/sensors.o
 .debug_loc     0x0000000000003463      0x1f6 ./source/system.o
 .debug_loc     0x0000000000003659       0x84 ./source/thermistor_lut.o
 .debug_loc     0x00000000000036dd      0x8c9 ./source/xprintf.o

.debug_aranges  0x0000000000000000      0x860
 .debug_aranges
                0x0000000000000000       0x48 ./startup.o
 .debug_aranges
                0x0000000000000048       0x68 ./FreeRTOS/event_groups.o
 .debug_aranges
                0x00000000000000b0       0x38 ./FreeRTOS/heap_1.o
 .debug_aranges
                0x00000000000000e8       0x40 ./FreeRTOS/list.o
 .debug_aranges
                0x0000000000000128       0x80 ./FreeRTOS/port.o
 .debug_aranges
                0x00000000000001a8       0xf0 ./FreeRTOS/queue.o
 .debug_aranges
                0x0000000000000298      0x1a8 ./FreeRTOS/tasks.o
 .debug_aranges
                0x0000000000000440       0x18 ./FreeRTOS/timers.o
 .debug_aranges
                0x0000000000000458       0x48 ./source/can.o
 .debug_aranges
                0x00000000000004a0       0x58 ./source/control.o
 .debug_aranges
                0x00000000000004f8       0x38 ./source/debug.o
 .debug_aranges
                0x0000000000000530       0x48 ./source/encoder.o
 .debug_aranges
                0x0000000000000578       0x28 ./source/fir.o
 .debug_aranges
                0x00000000000005a0       0x60 ./source/logger.o
 .debug_aranges
                0x0000000000000600       0x40 ./source/main.o
 .debug_aranges
                0x0000000000000640       0x28 ./source/pinconfig.o
 .debug_aranges
                0x0000000000000668       0x70 ./source/sensors.o
 .debug_aranges
                0x00000000000006d8       0xf8 ./source/system.o
 .debug_aranges
                0x00000000000007d0       0x20 ./source/thermistor_lut.o
 .debug_aranges
                0x00000000000007f0       0x70 ./source/xprintf.o

.debug_ranges   0x0000000000000000      0xef0
 .debug_ranges  0x0000000000000000       0x38 ./startup.o
 .debug_ranges  0x0000000000000038       0xa0 ./FreeRTOS/event_groups.o
 .debug_ranges  0x00000000000000d8       0x28 ./FreeRTOS/heap_1.o
 .debug_ranges  0x0000000000000100       0x30 ./FreeRTOS/list.o
 .debug_ranges  0x0000000000000130       0x90 ./FreeRTOS/port.o
 .debug_ranges  0x00000000000001c0      0x140 ./FreeRTOS/queue.o
 .debug_ranges  0x0000000000000300      0x520 ./FreeRTOS/tasks.o
 .debug_ranges  0x0000000000000820       0x68 ./source/can.o
 .debug_ranges  0x0000000000000888      0x1b0 ./source/control.o
 .debug_ranges  0x0000000000000a38       0x28 ./source/debug.o
 .debug_ranges  0x0000000000000a60       0x70 ./source/encoder.o
 .debug_ranges  0x0000000000000ad0       0x18 ./source/fir.o
 .debug_ranges  0x0000000000000ae8       0xb0 ./source/logger.o
 .debug_ranges  0x0000000000000b98       0x48 ./source/main.o
 .debug_ranges  0x0000000000000be0       0x18 ./source/pinconfig.o
 .debug_ranges  0x0000000000000bf8      0x150 ./source/sensors.o
 .debug_ranges  0x0000000000000d48      0x120 ./source/system.o
 .debug_ranges  0x0000000000000e68       0x10 ./source/thermistor_lut.o
 .debug_ranges  0x0000000000000e78       0x78 ./source/xprintf.o

.debug_line     0x0000000000000000     0x49ba
 .debug_line    0x0000000000000000      0x1af ./startup.o
 .debug_line    0x00000000000001af      0x49b ./FreeRTOS/event_groups.o
 .debug_line    0x000000000000064a      0x2da ./FreeRTOS/heap_1.o
 .debug_line    0x0000000000000924      0x354 ./FreeRTOS/list.o
 .debug_line    0x0000000000000c78      0x370 ./FreeRTOS/port.o
 .debug_line    0x0000000000000fe8      0x818 ./FreeRTOS/queue.o
 .debug_line    0x0000000000001800      0xdb1 ./FreeRTOS/tasks.o
 .debug_line    0x00000000000025b1      0x120 ./FreeRTOS/timers.o
 .debug_line    0x00000000000026d1      0x3fc ./source/can.o
 .debug_line    0x0000000000002acd      0x422 ./source/control.o
 .debug_line    0x0000000000002eef      0x177 ./source/debug.o
 .debug_line    0x0000000000003066      0x29a ./source/encoder.o
 .debug_line    0x0000000000003300      0x175 ./source/fir.o
 .debug_line    0x0000000000003475      0x389 ./source/logger.o
 .debug_line    0x00000000000037fe      0x312 ./source/main.o
 .debug_line    0x0000000000003b10      0x1af ./source/pinconfig.o
 .debug_line    0x0000000000003cbf      0x358 ./source/sensors.o
 .debug_line    0x0000000000004017      0x4bc ./source/system.o
 .debug_line    0x00000000000044d3      0x1d7 ./source/thermistor_lut.o
 .debug_line    0x00000000000046aa      0x310 ./source/xprintf.o

.debug_str      0x0000000000000000     0x3489
 .debug_str     0x0000000000000000      0x28d ./startup.o
                                        0x2d5 (size before relaxing)
 .debug_str     0x000000000000028d      0x823 ./FreeRTOS/event_groups.o
                                        0xa75 (size before relaxing)
 .debug_str     0x0000000000000ab0       0xe7 ./FreeRTOS/heap_1.o
                                        0x68d (size before relaxing)
 .debug_str     0x0000000000000b97       0xd5 ./FreeRTOS/list.o
                                        0x706 (size before relaxing)
 .debug_str     0x0000000000000c6c      0x25f ./FreeRTOS/port.o
                                        0x474 (size before relaxing)
 .debug_str     0x0000000000000ecb      0x55d ./FreeRTOS/queue.o
                                        0xcf3 (size before relaxing)
 .debug_str     0x0000000000001428      0xc79 ./FreeRTOS/tasks.o
                                       0x1466 (size before relaxing)
 .debug_str     0x00000000000020a1       0x4a ./FreeRTOS/timers.o
                                        0x5b5 (size before relaxing)
 .debug_str     0x00000000000020eb      0x3d8 ./source/can.o
                                        0xa4a (size before relaxing)
 .debug_str     0x00000000000024c3      0x444 ./source/control.o
                                        0x883 (size before relaxing)
 .debug_str     0x0000000000002907       0x6f ./source/debug.o
                                        0x271 (size before relaxing)
 .debug_str     0x0000000000002976      0x11a ./source/encoder.o
                                        0x3e6 (size before relaxing)
 .debug_str     0x0000000000002a90       0x41 ./source/fir.o
                                        0x5ff (size before relaxing)
 .debug_str     0x0000000000002ad1      0x163 ./source/logger.o
                                        0x3a6 (size before relaxing)
 .debug_str     0x0000000000002c34      0x247 ./source/main.o
                                        0xaca (size before relaxing)
 .debug_str     0x0000000000002e7b       0x28 ./source/pinconfig.o
                                        0x218 (size before relaxing)
 .debug_str     0x0000000000002ea3      0x216 ./source/sensors.o
                                        0x4c4 (size before relaxing)
 .debug_str     0x00000000000030b9      0x288 ./source/system.o
                                        0xd39 (size before relaxing)
 .debug_str     0x0000000000003341       0x7e ./source/thermistor_lut.o
                                        0x275 (size before relaxing)
 .debug_str     0x00000000000033bf       0xca ./source/xprintf.o
                                        0x285 (size before relaxing)

.debug_frame    0x0000000000000000     0x1c18
 .debug_frame   0x0000000000000000       0x84 ./startup.o
 .debug_frame   0x0000000000000084      0x118 ./FreeRTOS/event_groups.o
 .debug_frame   0x000000000000019c       0x58 ./FreeRTOS/heap_1.o
 .debug_frame   0x00000000000001f4       0x88 ./FreeRTOS/list.o
 .debug_frame   0x000000000000027c      0x104 ./FreeRTOS/port.o
 .debug_frame   0x0000000000000380      0x358 ./FreeRTOS/queue.o
 .debug_frame   0x00000000000006d8      0x624 ./FreeRTOS/tasks.o
 .debug_frame   0x0000000000000cfc       0xb8 ./source/can.o
 .debug_frame   0x0000000000000db4      0x124 ./source/control.o
 .debug_frame   0x0000000000000ed8       0x84 ./source/debug.o
 .debug_frame   0x0000000000000f5c       0xac ./source/encoder.o
 .debug_frame   0x0000000000001008       0x54 ./source/fir.o
 .debug_frame   0x000000000000105c      0x11c ./source/logger.o
 .debug_frame   0x0000000000001178       0x80 ./source/main.o
 .debug_frame   0x00000000000011f8       0x50 ./source/pinconfig.o
 .debug_frame   0x0000000000001248      0x11c ./source/sensors.o
 .debug_frame   0x0000000000001364      0x25c ./source/system.o
 .debug_frame   0x00000000000015c0       0x20 ./source/thermistor_lut.o
 .debug_frame   0x00000000000015e0      0x1e4 ./source/xprintf.o
 .debug_frame   0x00000000000017c4       0x20 /home/odougs/bin/ti/ccsv7/tools/compiler/gcc-arm-none-eabi-6-2017-q1-update/bin/../lib/gcc/arm-none-eabi/6.3.1/../../../../arm-none-eabi/lib/thumb/v7e-m/fpv4-sp/hard/libc.a(lib_a-calloc.o)
 .debug_frame   0x00000000000017e4       0x28 /home/odougs/bin/ti/ccsv7/tools/compiler/gcc-arm-none-eabi-6-2017-q1-update/bin/../lib/gcc/arm-none-eabi/6.3.1/../../../../arm-none-eabi/lib/thumb/v7e-m/fpv4-sp/hard/libc.a(lib_a-callocr.o)
 .debug_frame   0x000000000000180c       0x28 /home/odougs/bin/ti/ccsv7/tools/compiler/gcc-arm-none-eabi-6-2017-q1-update/bin/../lib/gcc/arm-none-eabi/6.3.1/../../../../arm-none-eabi/lib/thumb/v7e-m/fpv4-sp/hard/libc.a(lib_a-exit.o)
 .debug_frame   0x0000000000001834       0x2c /home/odougs/bin/ti/ccsv7/tools/compiler/gcc-arm-none-eabi-6-2017-q1-update/bin/../lib/gcc/arm-none-eabi/6.3.1/../../../../arm-none-eabi/lib/thumb/v7e-m/fpv4-sp/hard/libc.a(lib_a-init.o)
 .debug_frame   0x0000000000001860       0x30 /home/odougs/bin/ti/ccsv7/tools/compiler/gcc-arm-none-eabi-6-2017-q1-update/bin/../lib/gcc/arm-none-eabi/6.3.1/../../../../arm-none-eabi/lib/thumb/v7e-m/fpv4-sp/hard/libc.a(lib_a-malloc.o)
 .debug_frame   0x0000000000001890       0x58 /home/odougs/bin/ti/ccsv7/tools/compiler/gcc-arm-none-eabi-6-2017-q1-update/bin/../lib/gcc/arm-none-eabi/6.3.1/../../../../arm-none-eabi/lib/thumb/v7e-m/fpv4-sp/hard/libc.a(lib_a-mallocr.o)
 .debug_frame   0x00000000000018e8       0x34 /home/odougs/bin/ti/ccsv7/tools/compiler/gcc-arm-none-eabi-6-2017-q1-update/bin/../lib/gcc/arm-none-eabi/6.3.1/../../../../arm-none-eabi/lib/thumb/v7e-m/fpv4-sp/hard/libc.a(lib_a-memset.o)
 .debug_frame   0x000000000000191c       0x30 /home/odougs/bin/ti/ccsv7/tools/compiler/gcc-arm-none-eabi-6-2017-q1-update/bin/../lib/gcc/arm-none-eabi/6.3.1/../../../../arm-none-eabi/lib/thumb/v7e-m/fpv4-sp/hard/libc.a(lib_a-mlock.o)
 .debug_frame   0x000000000000194c       0x2c /home/odougs/bin/ti/ccsv7/tools/compiler/gcc-arm-none-eabi-6-2017-q1-update/bin/../lib/gcc/arm-none-eabi/6.3.1/../../../../arm-none-eabi/lib/thumb/v7e-m/fpv4-sp/hard/libc.a(lib_a-sbrkr.o)
 .debug_frame   0x0000000000001978       0x5c /home/odougs/bin/ti/ccsv7/tools/compiler/gcc-arm-none-eabi-6-2017-q1-update/bin/../lib/gcc/arm-none-eabi/6.3.1/../../../../arm-none-eabi/lib/thumb/v7e-m/fpv4-sp/hard/libc.a(lib_a-__call_atexit.o)
 .debug_frame   0x00000000000019d4       0x20 /home/odougs/bin/ti/ccsv7/tools/compiler/gcc-arm-none-eabi-6-2017-q1-update/bin/../lib/gcc/arm-none-eabi/6.3.1/../../../../arm-none-eabi/lib/thumb/v7e-m/fpv4-sp/hard/libc.a(lib_a-atexit.o)
 .debug_frame   0x00000000000019f4       0x34 /home/odougs/bin/ti/ccsv7/tools/compiler/gcc-arm-none-eabi-6-2017-q1-update/bin/../lib/gcc/arm-none-eabi/6.3.1/../../../../arm-none-eabi/lib/thumb/v7e-m/fpv4-sp/hard/libc.a(lib_a-fini.o)
 .debug_frame   0x0000000000001a28       0x74 /home/odougs/bin/ti/ccsv7/tools/compiler/gcc-arm-none-eabi-6-2017-q1-update/bin/../lib/gcc/arm-none-eabi/6.3.1/../../../../arm-none-eabi/lib/thumb/v7e-m/fpv4-sp/hard/libc.a(lib_a-freer.o)
 .debug_frame   0x0000000000001a9c       0xb0 /home/odougs/bin/ti/ccsv7/tools/compiler/gcc-arm-none-eabi-6-2017-q1-update/bin/../lib/gcc/arm-none-eabi/6.3.1/../../../../arm-none-eabi/lib/thumb/v7e-m/fpv4-sp/hard/libc.a(lib_a-lock.o)
 .debug_frame   0x0000000000001b4c       0x58 /home/odougs/bin/ti/ccsv7/tools/compiler/gcc-arm-none-eabi-6-2017-q1-update/bin/../lib/gcc/arm-none-eabi/6.3.1/../../../../arm-none-eabi/lib/thumb/v7e-m/fpv4-sp/hard/libc.a(lib_a-reent.o)
 .debug_frame   0x0000000000001ba4       0x34 /home/odougs/bin/ti/ccsv7/tools/compiler/gcc-arm-none-eabi-6-2017-q1-update/bin/../lib/gcc/arm-none-eabi/6.3.1/../../../../arm-none-eabi/lib/thumb/v7e-m/fpv4-sp/hard/libc.a(lib_a-__atexit.o)
 .debug_frame   0x0000000000001bd8       0x20 /home/odougs/bin/ti/ccsv7/tools/compiler/gcc-arm-none-eabi-6-2017-q1-update/bin/../lib/gcc/arm-none-eabi/6.3.1/../../../../arm-none-eabi/lib/thumb/v7e-m/fpv4-sp/hard/libnosys.a(sbrk.o)
 .debug_frame   0x0000000000001bf8       0x20 /home/odougs/bin/ti/ccsv7/tools/compiler/gcc-arm-none-eabi-6-2017-q1-update/bin/../lib/gcc/arm-none-eabi/6.3.1/../../../../arm-none-eabi/lib/thumb/v7e-m/fpv4-sp/hard/libnosys.a(_exit.o)
